

Microchip Technology PIC LITE Macro Assembler V1.34 build -361300703 
                                                                                               Tue Oct 20 11:05:45 2015

Microchip Technology Omniscient Code Generator (Lite mode) build 201502162209
     1                           	processor	16LF1828
     2                           	opt	pw 120
     3                           	opt	lm
     4                           	psect	stringtext,global,reloc=256,class=STRCODE,delta=2
     5                           	psect	nvBANK0,global,class=BANK0,space=1,delta=1
     6                           	psect	cinit,global,class=CODE,merge=1,delta=2
     7                           	psect	bssCOMMON,global,class=COMMON,space=1,delta=1
     8                           	psect	bssBANK0,global,class=BANK0,space=1,delta=1
     9                           	psect	bssBANK1,global,class=BANK1,space=1,delta=1
    10                           	psect	clrtext,global,class=CODE,delta=2
    11                           	psect	cstackCOMMON,global,class=COMMON,space=1,delta=1
    12                           	psect	cstackBANK0,global,class=BANK0,space=1,delta=1
    13                           	psect	maintext,global,class=CODE,merge=1,split=1,delta=2
    14                           	psect	text1,local,class=CODE,merge=1,delta=2
    15                           	psect	text2,local,class=CODE,merge=1,delta=2
    16                           	psect	text3,local,class=CODE,merge=1,delta=2
    17                           	psect	text4,local,class=CODE,merge=1,delta=2
    18                           	psect	text5,local,class=CODE,merge=1,delta=2
    19                           	psect	text6,local,class=CODE,merge=1,delta=2
    20                           	psect	text7,local,class=CODE,merge=1,delta=2
    21                           	psect	text8,local,class=CODE,merge=1,delta=2
    22                           	psect	text9,local,class=CODE,merge=1,delta=2
    23                           	psect	text10,local,class=CODE,merge=1,delta=2
    24                           	psect	text11,local,class=CODE,merge=1,delta=2
    25                           	psect	text12,local,class=CODE,merge=1,delta=2
    26                           	psect	text13,local,class=CODE,merge=1,delta=2
    27                           	psect	text14,local,class=CODE,merge=1,delta=2
    28                           	psect	text15,local,class=CODE,merge=1,delta=2
    29                           	psect	intentry,global,class=CODE,delta=2
    30                           	psect	text17,local,class=CODE,merge=1,delta=2
    31                           	dabs	1,0x7E,2
    32  0000                     	;# 
    33  0001                     	;# 
    34  0002                     	;# 
    35  0003                     	;# 
    36  0004                     	;# 
    37  0005                     	;# 
    38  0006                     	;# 
    39  0007                     	;# 
    40  0008                     	;# 
    41  0009                     	;# 
    42  000A                     	;# 
    43  000B                     	;# 
    44  000C                     	;# 
    45  000D                     	;# 
    46  000E                     	;# 
    47  0011                     	;# 
    48  0012                     	;# 
    49  0013                     	;# 
    50  0015                     	;# 
    51  0016                     	;# 
    52  0016                     	;# 
    53  0017                     	;# 
    54  0018                     	;# 
    55  0019                     	;# 
    56  001A                     	;# 
    57  001B                     	;# 
    58  001C                     	;# 
    59  001E                     	;# 
    60  001F                     	;# 
    61  008C                     	;# 
    62  008D                     	;# 
    63  008E                     	;# 
    64  0091                     	;# 
    65  0092                     	;# 
    66  0093                     	;# 
    67  0095                     	;# 
    68  0096                     	;# 
    69  0097                     	;# 
    70  0098                     	;# 
    71  0099                     	;# 
    72  009A                     	;# 
    73  009B                     	;# 
    74  009B                     	;# 
    75  009C                     	;# 
    76  009D                     	;# 
    77  009E                     	;# 
    78  010C                     	;# 
    79  010D                     	;# 
    80  010E                     	;# 
    81  0111                     	;# 
    82  0112                     	;# 
    83  0113                     	;# 
    84  0114                     	;# 
    85  0115                     	;# 
    86  0116                     	;# 
    87  0117                     	;# 
    88  0118                     	;# 
    89  0119                     	;# 
    90  011A                     	;# 
    91  011B                     	;# 
    92  011D                     	;# 
    93  011E                     	;# 
    94  018C                     	;# 
    95  018D                     	;# 
    96  018E                     	;# 
    97  0191                     	;# 
    98  0191                     	;# 
    99  0192                     	;# 
   100  0193                     	;# 
   101  0193                     	;# 
   102  0193                     	;# 
   103  0194                     	;# 
   104  0195                     	;# 
   105  0196                     	;# 
   106  0199                     	;# 
   107  019A                     	;# 
   108  019B                     	;# 
   109  019B                     	;# 
   110  019B                     	;# 
   111  019B                     	;# 
   112  019C                     	;# 
   113  019C                     	;# 
   114  019D                     	;# 
   115  019E                     	;# 
   116  019F                     	;# 
   117  020C                     	;# 
   118  020D                     	;# 
   119  020E                     	;# 
   120  0211                     	;# 
   121  0211                     	;# 
   122  0212                     	;# 
   123  0212                     	;# 
   124  0213                     	;# 
   125  0213                     	;# 
   126  0214                     	;# 
   127  0214                     	;# 
   128  0215                     	;# 
   129  0215                     	;# 
   130  0215                     	;# 
   131  0215                     	;# 
   132  0216                     	;# 
   133  0216                     	;# 
   134  0217                     	;# 
   135  0217                     	;# 
   136  0291                     	;# 
   137  0291                     	;# 
   138  0292                     	;# 
   139  0293                     	;# 
   140  0294                     	;# 
   141  0295                     	;# 
   142  0295                     	;# 
   143  0296                     	;# 
   144  0298                     	;# 
   145  0298                     	;# 
   146  0299                     	;# 
   147  029A                     	;# 
   148  029B                     	;# 
   149  029C                     	;# 
   150  029D                     	;# 
   151  029E                     	;# 
   152  029E                     	;# 
   153  0311                     	;# 
   154  0311                     	;# 
   155  0312                     	;# 
   156  0313                     	;# 
   157  0318                     	;# 
   158  0318                     	;# 
   159  0319                     	;# 
   160  031A                     	;# 
   161  038C                     	;# 
   162  038D                     	;# 
   163  038E                     	;# 
   164  0391                     	;# 
   165  0392                     	;# 
   166  0393                     	;# 
   167  0394                     	;# 
   168  0395                     	;# 
   169  0396                     	;# 
   170  039A                     	;# 
   171  039C                     	;# 
   172  039D                     	;# 
   173  039E                     	;# 
   174  039F                     	;# 
   175  0415                     	;# 
   176  0416                     	;# 
   177  0417                     	;# 
   178  041C                     	;# 
   179  041D                     	;# 
   180  041E                     	;# 
   181  0FE4                     	;# 
   182  0FE5                     	;# 
   183  0FE6                     	;# 
   184  0FE7                     	;# 
   185  0FE8                     	;# 
   186  0FE9                     	;# 
   187  0FEA                     	;# 
   188  0FEB                     	;# 
   189  0FED                     	;# 
   190  0FEE                     	;# 
   191  0FEF                     	;# 
   192  0000                     	;# 
   193  0001                     	;# 
   194  0002                     	;# 
   195  0003                     	;# 
   196  0004                     	;# 
   197  0005                     	;# 
   198  0006                     	;# 
   199  0007                     	;# 
   200  0008                     	;# 
   201  0009                     	;# 
   202  000A                     	;# 
   203  000B                     	;# 
   204  000C                     	;# 
   205  000D                     	;# 
   206  000E                     	;# 
   207  0011                     	;# 
   208  0012                     	;# 
   209  0013                     	;# 
   210  0015                     	;# 
   211  0016                     	;# 
   212  0016                     	;# 
   213  0017                     	;# 
   214  0018                     	;# 
   215  0019                     	;# 
   216  001A                     	;# 
   217  001B                     	;# 
   218  001C                     	;# 
   219  001E                     	;# 
   220  001F                     	;# 
   221  008C                     	;# 
   222  008D                     	;# 
   223  008E                     	;# 
   224  0091                     	;# 
   225  0092                     	;# 
   226  0093                     	;# 
   227  0095                     	;# 
   228  0096                     	;# 
   229  0097                     	;# 
   230  0098                     	;# 
   231  0099                     	;# 
   232  009A                     	;# 
   233  009B                     	;# 
   234  009B                     	;# 
   235  009C                     	;# 
   236  009D                     	;# 
   237  009E                     	;# 
   238  010C                     	;# 
   239  010D                     	;# 
   240  010E                     	;# 
   241  0111                     	;# 
   242  0112                     	;# 
   243  0113                     	;# 
   244  0114                     	;# 
   245  0115                     	;# 
   246  0116                     	;# 
   247  0117                     	;# 
   248  0118                     	;# 
   249  0119                     	;# 
   250  011A                     	;# 
   251  011B                     	;# 
   252  011D                     	;# 
   253  011E                     	;# 
   254  018C                     	;# 
   255  018D                     	;# 
   256  018E                     	;# 
   257  0191                     	;# 
   258  0191                     	;# 
   259  0192                     	;# 
   260  0193                     	;# 
   261  0193                     	;# 
   262  0193                     	;# 
   263  0194                     	;# 
   264  0195                     	;# 
   265  0196                     	;# 
   266  0199                     	;# 
   267  019A                     	;# 
   268  019B                     	;# 
   269  019B                     	;# 
   270  019B                     	;# 
   271  019B                     	;# 
   272  019C                     	;# 
   273  019C                     	;# 
   274  019D                     	;# 
   275  019E                     	;# 
   276  019F                     	;# 
   277  020C                     	;# 
   278  020D                     	;# 
   279  020E                     	;# 
   280  0211                     	;# 
   281  0211                     	;# 
   282  0212                     	;# 
   283  0212                     	;# 
   284  0213                     	;# 
   285  0213                     	;# 
   286  0214                     	;# 
   287  0214                     	;# 
   288  0215                     	;# 
   289  0215                     	;# 
   290  0215                     	;# 
   291  0215                     	;# 
   292  0216                     	;# 
   293  0216                     	;# 
   294  0217                     	;# 
   295  0217                     	;# 
   296  0291                     	;# 
   297  0291                     	;# 
   298  0292                     	;# 
   299  0293                     	;# 
   300  0294                     	;# 
   301  0295                     	;# 
   302  0295                     	;# 
   303  0296                     	;# 
   304  0298                     	;# 
   305  0298                     	;# 
   306  0299                     	;# 
   307  029A                     	;# 
   308  029B                     	;# 
   309  029C                     	;# 
   310  029D                     	;# 
   311  029E                     	;# 
   312  029E                     	;# 
   313  0311                     	;# 
   314  0311                     	;# 
   315  0312                     	;# 
   316  0313                     	;# 
   317  0318                     	;# 
   318  0318                     	;# 
   319  0319                     	;# 
   320  031A                     	;# 
   321  038C                     	;# 
   322  038D                     	;# 
   323  038E                     	;# 
   324  0391                     	;# 
   325  0392                     	;# 
   326  0393                     	;# 
   327  0394                     	;# 
   328  0395                     	;# 
   329  0396                     	;# 
   330  039A                     	;# 
   331  039C                     	;# 
   332  039D                     	;# 
   333  039E                     	;# 
   334  039F                     	;# 
   335  0415                     	;# 
   336  0416                     	;# 
   337  0417                     	;# 
   338  041C                     	;# 
   339  041D                     	;# 
   340  041E                     	;# 
   341  0FE4                     	;# 
   342  0FE5                     	;# 
   343  0FE6                     	;# 
   344  0FE7                     	;# 
   345  0FE8                     	;# 
   346  0FE9                     	;# 
   347  0FEA                     	;# 
   348  0FEB                     	;# 
   349  0FED                     	;# 
   350  0FEE                     	;# 
   351  0FEF                     	;# 
   352  0000                     	;# 
   353  0001                     	;# 
   354  0002                     	;# 
   355  0003                     	;# 
   356  0004                     	;# 
   357  0005                     	;# 
   358  0006                     	;# 
   359  0007                     	;# 
   360  0008                     	;# 
   361  0009                     	;# 
   362  000A                     	;# 
   363  000B                     	;# 
   364  000C                     	;# 
   365  000D                     	;# 
   366  000E                     	;# 
   367  0011                     	;# 
   368  0012                     	;# 
   369  0013                     	;# 
   370  0015                     	;# 
   371  0016                     	;# 
   372  0016                     	;# 
   373  0017                     	;# 
   374  0018                     	;# 
   375  0019                     	;# 
   376  001A                     	;# 
   377  001B                     	;# 
   378  001C                     	;# 
   379  001E                     	;# 
   380  001F                     	;# 
   381  008C                     	;# 
   382  008D                     	;# 
   383  008E                     	;# 
   384  0091                     	;# 
   385  0092                     	;# 
   386  0093                     	;# 
   387  0095                     	;# 
   388  0096                     	;# 
   389  0097                     	;# 
   390  0098                     	;# 
   391  0099                     	;# 
   392  009A                     	;# 
   393  009B                     	;# 
   394  009B                     	;# 
   395  009C                     	;# 
   396  009D                     	;# 
   397  009E                     	;# 
   398  010C                     	;# 
   399  010D                     	;# 
   400  010E                     	;# 
   401  0111                     	;# 
   402  0112                     	;# 
   403  0113                     	;# 
   404  0114                     	;# 
   405  0115                     	;# 
   406  0116                     	;# 
   407  0117                     	;# 
   408  0118                     	;# 
   409  0119                     	;# 
   410  011A                     	;# 
   411  011B                     	;# 
   412  011D                     	;# 
   413  011E                     	;# 
   414  018C                     	;# 
   415  018D                     	;# 
   416  018E                     	;# 
   417  0191                     	;# 
   418  0191                     	;# 
   419  0192                     	;# 
   420  0193                     	;# 
   421  0193                     	;# 
   422  0193                     	;# 
   423  0194                     	;# 
   424  0195                     	;# 
   425  0196                     	;# 
   426  0199                     	;# 
   427  019A                     	;# 
   428  019B                     	;# 
   429  019B                     	;# 
   430  019B                     	;# 
   431  019B                     	;# 
   432  019C                     	;# 
   433  019C                     	;# 
   434  019D                     	;# 
   435  019E                     	;# 
   436  019F                     	;# 
   437  020C                     	;# 
   438  020D                     	;# 
   439  020E                     	;# 
   440  0211                     	;# 
   441  0211                     	;# 
   442  0212                     	;# 
   443  0212                     	;# 
   444  0213                     	;# 
   445  0213                     	;# 
   446  0214                     	;# 
   447  0214                     	;# 
   448  0215                     	;# 
   449  0215                     	;# 
   450  0215                     	;# 
   451  0215                     	;# 
   452  0216                     	;# 
   453  0216                     	;# 
   454  0217                     	;# 
   455  0217                     	;# 
   456  0291                     	;# 
   457  0291                     	;# 
   458  0292                     	;# 
   459  0293                     	;# 
   460  0294                     	;# 
   461  0295                     	;# 
   462  0295                     	;# 
   463  0296                     	;# 
   464  0298                     	;# 
   465  0298                     	;# 
   466  0299                     	;# 
   467  029A                     	;# 
   468  029B                     	;# 
   469  029C                     	;# 
   470  029D                     	;# 
   471  029E                     	;# 
   472  029E                     	;# 
   473  0311                     	;# 
   474  0311                     	;# 
   475  0312                     	;# 
   476  0313                     	;# 
   477  0318                     	;# 
   478  0318                     	;# 
   479  0319                     	;# 
   480  031A                     	;# 
   481  038C                     	;# 
   482  038D                     	;# 
   483  038E                     	;# 
   484  0391                     	;# 
   485  0392                     	;# 
   486  0393                     	;# 
   487  0394                     	;# 
   488  0395                     	;# 
   489  0396                     	;# 
   490  039A                     	;# 
   491  039C                     	;# 
   492  039D                     	;# 
   493  039E                     	;# 
   494  039F                     	;# 
   495  0415                     	;# 
   496  0416                     	;# 
   497  0417                     	;# 
   498  041C                     	;# 
   499  041D                     	;# 
   500  041E                     	;# 
   501  0FE4                     	;# 
   502  0FE5                     	;# 
   503  0FE6                     	;# 
   504  0FE7                     	;# 
   505  0FE8                     	;# 
   506  0FE9                     	;# 
   507  0FEA                     	;# 
   508  0FEB                     	;# 
   509  0FED                     	;# 
   510  0FEE                     	;# 
   511  0FEF                     	;# 
   512  0000                     	;# 
   513  0001                     	;# 
   514  0002                     	;# 
   515  0003                     	;# 
   516  0004                     	;# 
   517  0005                     	;# 
   518  0006                     	;# 
   519  0007                     	;# 
   520  0008                     	;# 
   521  0009                     	;# 
   522  000A                     	;# 
   523  000B                     	;# 
   524  000C                     	;# 
   525  000D                     	;# 
   526  000E                     	;# 
   527  0011                     	;# 
   528  0012                     	;# 
   529  0013                     	;# 
   530  0015                     	;# 
   531  0016                     	;# 
   532  0016                     	;# 
   533  0017                     	;# 
   534  0018                     	;# 
   535  0019                     	;# 
   536  001A                     	;# 
   537  001B                     	;# 
   538  001C                     	;# 
   539  001E                     	;# 
   540  001F                     	;# 
   541  008C                     	;# 
   542  008D                     	;# 
   543  008E                     	;# 
   544  0091                     	;# 
   545  0092                     	;# 
   546  0093                     	;# 
   547  0095                     	;# 
   548  0096                     	;# 
   549  0097                     	;# 
   550  0098                     	;# 
   551  0099                     	;# 
   552  009A                     	;# 
   553  009B                     	;# 
   554  009B                     	;# 
   555  009C                     	;# 
   556  009D                     	;# 
   557  009E                     	;# 
   558  010C                     	;# 
   559  010D                     	;# 
   560  010E                     	;# 
   561  0111                     	;# 
   562  0112                     	;# 
   563  0113                     	;# 
   564  0114                     	;# 
   565  0115                     	;# 
   566  0116                     	;# 
   567  0117                     	;# 
   568  0118                     	;# 
   569  0119                     	;# 
   570  011A                     	;# 
   571  011B                     	;# 
   572  011D                     	;# 
   573  011E                     	;# 
   574  018C                     	;# 
   575  018D                     	;# 
   576  018E                     	;# 
   577  0191                     	;# 
   578  0191                     	;# 
   579  0192                     	;# 
   580  0193                     	;# 
   581  0193                     	;# 
   582  0193                     	;# 
   583  0194                     	;# 
   584  0195                     	;# 
   585  0196                     	;# 
   586  0199                     	;# 
   587  019A                     	;# 
   588  019B                     	;# 
   589  019B                     	;# 
   590  019B                     	;# 
   591  019B                     	;# 
   592  019C                     	;# 
   593  019C                     	;# 
   594  019D                     	;# 
   595  019E                     	;# 
   596  019F                     	;# 
   597  020C                     	;# 
   598  020D                     	;# 
   599  020E                     	;# 
   600  0211                     	;# 
   601  0211                     	;# 
   602  0212                     	;# 
   603  0212                     	;# 
   604  0213                     	;# 
   605  0213                     	;# 
   606  0214                     	;# 
   607  0214                     	;# 
   608  0215                     	;# 
   609  0215                     	;# 
   610  0215                     	;# 
   611  0215                     	;# 
   612  0216                     	;# 
   613  0216                     	;# 
   614  0217                     	;# 
   615  0217                     	;# 
   616  0291                     	;# 
   617  0291                     	;# 
   618  0292                     	;# 
   619  0293                     	;# 
   620  0294                     	;# 
   621  0295                     	;# 
   622  0295                     	;# 
   623  0296                     	;# 
   624  0298                     	;# 
   625  0298                     	;# 
   626  0299                     	;# 
   627  029A                     	;# 
   628  029B                     	;# 
   629  029C                     	;# 
   630  029D                     	;# 
   631  029E                     	;# 
   632  029E                     	;# 
   633  0311                     	;# 
   634  0311                     	;# 
   635  0312                     	;# 
   636  0313                     	;# 
   637  0318                     	;# 
   638  0318                     	;# 
   639  0319                     	;# 
   640  031A                     	;# 
   641  038C                     	;# 
   642  038D                     	;# 
   643  038E                     	;# 
   644  0391                     	;# 
   645  0392                     	;# 
   646  0393                     	;# 
   647  0394                     	;# 
   648  0395                     	;# 
   649  0396                     	;# 
   650  039A                     	;# 
   651  039C                     	;# 
   652  039D                     	;# 
   653  039E                     	;# 
   654  039F                     	;# 
   655  0415                     	;# 
   656  0416                     	;# 
   657  0417                     	;# 
   658  041C                     	;# 
   659  041D                     	;# 
   660  041E                     	;# 
   661  0FE4                     	;# 
   662  0FE5                     	;# 
   663  0FE6                     	;# 
   664  0FE7                     	;# 
   665  0FE8                     	;# 
   666  0FE9                     	;# 
   667  0FEA                     	;# 
   668  0FEB                     	;# 
   669  0FED                     	;# 
   670  0FEE                     	;# 
   671  0FEF                     	;# 
   672  0000                     	;# 
   673  0001                     	;# 
   674  0002                     	;# 
   675  0003                     	;# 
   676  0004                     	;# 
   677  0005                     	;# 
   678  0006                     	;# 
   679  0007                     	;# 
   680  0008                     	;# 
   681  0009                     	;# 
   682  000A                     	;# 
   683  000B                     	;# 
   684  000C                     	;# 
   685  000D                     	;# 
   686  000E                     	;# 
   687  0011                     	;# 
   688  0012                     	;# 
   689  0013                     	;# 
   690  0015                     	;# 
   691  0016                     	;# 
   692  0016                     	;# 
   693  0017                     	;# 
   694  0018                     	;# 
   695  0019                     	;# 
   696  001A                     	;# 
   697  001B                     	;# 
   698  001C                     	;# 
   699  001E                     	;# 
   700  001F                     	;# 
   701  008C                     	;# 
   702  008D                     	;# 
   703  008E                     	;# 
   704  0091                     	;# 
   705  0092                     	;# 
   706  0093                     	;# 
   707  0095                     	;# 
   708  0096                     	;# 
   709  0097                     	;# 
   710  0098                     	;# 
   711  0099                     	;# 
   712  009A                     	;# 
   713  009B                     	;# 
   714  009B                     	;# 
   715  009C                     	;# 
   716  009D                     	;# 
   717  009E                     	;# 
   718  010C                     	;# 
   719  010D                     	;# 
   720  010E                     	;# 
   721  0111                     	;# 
   722  0112                     	;# 
   723  0113                     	;# 
   724  0114                     	;# 
   725  0115                     	;# 
   726  0116                     	;# 
   727  0117                     	;# 
   728  0118                     	;# 
   729  0119                     	;# 
   730  011A                     	;# 
   731  011B                     	;# 
   732  011D                     	;# 
   733  011E                     	;# 
   734  018C                     	;# 
   735  018D                     	;# 
   736  018E                     	;# 
   737  0191                     	;# 
   738  0191                     	;# 
   739  0192                     	;# 
   740  0193                     	;# 
   741  0193                     	;# 
   742  0193                     	;# 
   743  0194                     	;# 
   744  0195                     	;# 
   745  0196                     	;# 
   746  0199                     	;# 
   747  019A                     	;# 
   748  019B                     	;# 
   749  019B                     	;# 
   750  019B                     	;# 
   751  019B                     	;# 
   752  019C                     	;# 
   753  019C                     	;# 
   754  019D                     	;# 
   755  019E                     	;# 
   756  019F                     	;# 
   757  020C                     	;# 
   758  020D                     	;# 
   759  020E                     	;# 
   760  0211                     	;# 
   761  0211                     	;# 
   762  0212                     	;# 
   763  0212                     	;# 
   764  0213                     	;# 
   765  0213                     	;# 
   766  0214                     	;# 
   767  0214                     	;# 
   768  0215                     	;# 
   769  0215                     	;# 
   770  0215                     	;# 
   771  0215                     	;# 
   772  0216                     	;# 
   773  0216                     	;# 
   774  0217                     	;# 
   775  0217                     	;# 
   776  0291                     	;# 
   777  0291                     	;# 
   778  0292                     	;# 
   779  0293                     	;# 
   780  0294                     	;# 
   781  0295                     	;# 
   782  0295                     	;# 
   783  0296                     	;# 
   784  0298                     	;# 
   785  0298                     	;# 
   786  0299                     	;# 
   787  029A                     	;# 
   788  029B                     	;# 
   789  029C                     	;# 
   790  029D                     	;# 
   791  029E                     	;# 
   792  029E                     	;# 
   793  0311                     	;# 
   794  0311                     	;# 
   795  0312                     	;# 
   796  0313                     	;# 
   797  0318                     	;# 
   798  0318                     	;# 
   799  0319                     	;# 
   800  031A                     	;# 
   801  038C                     	;# 
   802  038D                     	;# 
   803  038E                     	;# 
   804  0391                     	;# 
   805  0392                     	;# 
   806  0393                     	;# 
   807  0394                     	;# 
   808  0395                     	;# 
   809  0396                     	;# 
   810  039A                     	;# 
   811  039C                     	;# 
   812  039D                     	;# 
   813  039E                     	;# 
   814  039F                     	;# 
   815  0415                     	;# 
   816  0416                     	;# 
   817  0417                     	;# 
   818  041C                     	;# 
   819  041D                     	;# 
   820  041E                     	;# 
   821  0FE4                     	;# 
   822  0FE5                     	;# 
   823  0FE6                     	;# 
   824  0FE7                     	;# 
   825  0FE8                     	;# 
   826  0FE9                     	;# 
   827  0FEA                     	;# 
   828  0FEB                     	;# 
   829  0FED                     	;# 
   830  0FEE                     	;# 
   831  0FEF                     	;# 
   832  0000                     	;# 
   833  0001                     	;# 
   834  0002                     	;# 
   835  0003                     	;# 
   836  0004                     	;# 
   837  0005                     	;# 
   838  0006                     	;# 
   839  0007                     	;# 
   840  0008                     	;# 
   841  0009                     	;# 
   842  000A                     	;# 
   843  000B                     	;# 
   844  000C                     	;# 
   845  000D                     	;# 
   846  000E                     	;# 
   847  0011                     	;# 
   848  0012                     	;# 
   849  0013                     	;# 
   850  0015                     	;# 
   851  0016                     	;# 
   852  0016                     	;# 
   853  0017                     	;# 
   854  0018                     	;# 
   855  0019                     	;# 
   856  001A                     	;# 
   857  001B                     	;# 
   858  001C                     	;# 
   859  001E                     	;# 
   860  001F                     	;# 
   861  008C                     	;# 
   862  008D                     	;# 
   863  008E                     	;# 
   864  0091                     	;# 
   865  0092                     	;# 
   866  0093                     	;# 
   867  0095                     	;# 
   868  0096                     	;# 
   869  0097                     	;# 
   870  0098                     	;# 
   871  0099                     	;# 
   872  009A                     	;# 
   873  009B                     	;# 
   874  009B                     	;# 
   875  009C                     	;# 
   876  009D                     	;# 
   877  009E                     	;# 
   878  010C                     	;# 
   879  010D                     	;# 
   880  010E                     	;# 
   881  0111                     	;# 
   882  0112                     	;# 
   883  0113                     	;# 
   884  0114                     	;# 
   885  0115                     	;# 
   886  0116                     	;# 
   887  0117                     	;# 
   888  0118                     	;# 
   889  0119                     	;# 
   890  011A                     	;# 
   891  011B                     	;# 
   892  011D                     	;# 
   893  011E                     	;# 
   894  018C                     	;# 
   895  018D                     	;# 
   896  018E                     	;# 
   897  0191                     	;# 
   898  0191                     	;# 
   899  0192                     	;# 
   900  0193                     	;# 
   901  0193                     	;# 
   902  0193                     	;# 
   903  0194                     	;# 
   904  0195                     	;# 
   905  0196                     	;# 
   906  0199                     	;# 
   907  019A                     	;# 
   908  019B                     	;# 
   909  019B                     	;# 
   910  019B                     	;# 
   911  019B                     	;# 
   912  019C                     	;# 
   913  019C                     	;# 
   914  019D                     	;# 
   915  019E                     	;# 
   916  019F                     	;# 
   917  020C                     	;# 
   918  020D                     	;# 
   919  020E                     	;# 
   920  0211                     	;# 
   921  0211                     	;# 
   922  0212                     	;# 
   923  0212                     	;# 
   924  0213                     	;# 
   925  0213                     	;# 
   926  0214                     	;# 
   927  0214                     	;# 
   928  0215                     	;# 
   929  0215                     	;# 
   930  0215                     	;# 
   931  0215                     	;# 
   932  0216                     	;# 
   933  0216                     	;# 
   934  0217                     	;# 
   935  0217                     	;# 
   936  0291                     	;# 
   937  0291                     	;# 
   938  0292                     	;# 
   939  0293                     	;# 
   940  0294                     	;# 
   941  0295                     	;# 
   942  0295                     	;# 
   943  0296                     	;# 
   944  0298                     	;# 
   945  0298                     	;# 
   946  0299                     	;# 
   947  029A                     	;# 
   948  029B                     	;# 
   949  029C                     	;# 
   950  029D                     	;# 
   951  029E                     	;# 
   952  029E                     	;# 
   953  0311                     	;# 
   954  0311                     	;# 
   955  0312                     	;# 
   956  0313                     	;# 
   957  0318                     	;# 
   958  0318                     	;# 
   959  0319                     	;# 
   960  031A                     	;# 
   961  038C                     	;# 
   962  038D                     	;# 
   963  038E                     	;# 
   964  0391                     	;# 
   965  0392                     	;# 
   966  0393                     	;# 
   967  0394                     	;# 
   968  0395                     	;# 
   969  0396                     	;# 
   970  039A                     	;# 
   971  039C                     	;# 
   972  039D                     	;# 
   973  039E                     	;# 
   974  039F                     	;# 
   975  0415                     	;# 
   976  0416                     	;# 
   977  0417                     	;# 
   978  041C                     	;# 
   979  041D                     	;# 
   980  041E                     	;# 
   981  0FE4                     	;# 
   982  0FE5                     	;# 
   983  0FE6                     	;# 
   984  0FE7                     	;# 
   985  0FE8                     	;# 
   986  0FE9                     	;# 
   987  0FEA                     	;# 
   988  0FEB                     	;# 
   989  0FED                     	;# 
   990  0FEE                     	;# 
   991  0FEF                     	;# 
   992                           
   993                           	psect	stringtext
   994  0100                     __pstringtext:	
   995  0100                     _correct:	
   996  0100  3400               	retlw	0
   997  0101  3400               	retlw	0
   998  0102  3421               	retlw	33
   999  0103  3410               	retlw	16
  1000  0104  3442               	retlw	66
  1001  0105  3420               	retlw	32
  1002  0106  3463               	retlw	99
  1003  0107  3430               	retlw	48
  1004  0108  3484               	retlw	132
  1005  0109  3440               	retlw	64
  1006  010A  34A5               	retlw	165
  1007  010B  3450               	retlw	80
  1008  010C  34C6               	retlw	198
  1009  010D  3460               	retlw	96
  1010  010E  34E7               	retlw	231
  1011  010F  3470               	retlw	112
  1012  0110  3408               	retlw	8
  1013  0111  3481               	retlw	129
  1014  0112  3429               	retlw	41
  1015  0113  3491               	retlw	145
  1016  0114  344A               	retlw	74
  1017  0115  34A1               	retlw	161
  1018  0116  346B               	retlw	107
  1019  0117  34B1               	retlw	177
  1020  0118  348C               	retlw	140
  1021  0119  34C1               	retlw	193
  1022  011A  34AD               	retlw	173
  1023  011B  34D1               	retlw	209
  1024  011C  34CE               	retlw	206
  1025  011D  34E1               	retlw	225
  1026  011E  34EF               	retlw	239
  1027  011F  34F1               	retlw	241
  1028  0120  3431               	retlw	49
  1029  0121  3412               	retlw	18
  1030  0122  3410               	retlw	16
  1031  0123  3402               	retlw	2
  1032  0124  3473               	retlw	115
  1033  0125  3432               	retlw	50
  1034  0126  3452               	retlw	82
  1035  0127  3422               	retlw	34
  1036  0128  34B5               	retlw	181
  1037  0129  3452               	retlw	82
  1038  012A  3494               	retlw	148
  1039  012B  3442               	retlw	66
  1040  012C  34F7               	retlw	247
  1041  012D  3472               	retlw	114
  1042  012E  34D6               	retlw	214
  1043  012F  3462               	retlw	98
  1044  0130  3439               	retlw	57
  1045  0131  3493               	retlw	147
  1046  0132  3418               	retlw	24
  1047  0133  3483               	retlw	131
  1048  0134  347B               	retlw	123
  1049  0135  34B3               	retlw	179
  1050  0136  345A               	retlw	90
  1051  0137  34A3               	retlw	163
  1052  0138  34BD               	retlw	189
  1053  0139  34D3               	retlw	211
  1054  013A  349C               	retlw	156
  1055  013B  34C3               	retlw	195
  1056  013C  34FF               	retlw	255
  1057  013D  34F3               	retlw	243
  1058  013E  34DE               	retlw	222
  1059  013F  34E3               	retlw	227
  1060  0140  3462               	retlw	98
  1061  0141  3424               	retlw	36
  1062  0142  3443               	retlw	67
  1063  0143  3434               	retlw	52
  1064  0144  3420               	retlw	32
  1065  0145  3404               	retlw	4
  1066  0146  3401               	retlw	1
  1067  0147  3414               	retlw	20
  1068  0148  34E6               	retlw	230
  1069  0149  3464               	retlw	100
  1070  014A  34C7               	retlw	199
  1071  014B  3474               	retlw	116
  1072  014C  34A4               	retlw	164
  1073  014D  3444               	retlw	68
  1074  014E  3485               	retlw	133
  1075  014F  3454               	retlw	84
  1076  0150  346A               	retlw	106
  1077  0151  34A5               	retlw	165
  1078  0152  344B               	retlw	75
  1079  0153  34B5               	retlw	181
  1080  0154  3428               	retlw	40
  1081  0155  3485               	retlw	133
  1082  0156  3409               	retlw	9
  1083  0157  3495               	retlw	149
  1084  0158  34EE               	retlw	238
  1085  0159  34E5               	retlw	229
  1086  015A  34CF               	retlw	207
  1087  015B  34F5               	retlw	245
  1088  015C  34AC               	retlw	172
  1089  015D  34C5               	retlw	197
  1090  015E  348D               	retlw	141
  1091  015F  34D5               	retlw	213
  1092  0160  3453               	retlw	83
  1093  0161  3436               	retlw	54
  1094  0162  3472               	retlw	114
  1095  0163  3426               	retlw	38
  1096  0164  3411               	retlw	17
  1097  0165  3416               	retlw	22
  1098  0166  3430               	retlw	48
  1099  0167  3406               	retlw	6
  1100  0168  34D7               	retlw	215
  1101  0169  3476               	retlw	118
  1102  016A  34F6               	retlw	246
  1103  016B  3466               	retlw	102
  1104  016C  3495               	retlw	149
  1105  016D  3456               	retlw	86
  1106  016E  34B4               	retlw	180
  1107  016F  3446               	retlw	70
  1108  0170  345B               	retlw	91
  1109  0171  34B7               	retlw	183
  1110  0172  347A               	retlw	122
  1111  0173  34A7               	retlw	167
  1112  0174  3419               	retlw	25
  1113  0175  3497               	retlw	151
  1114  0176  3438               	retlw	56
  1115  0177  3487               	retlw	135
  1116  0178  34DF               	retlw	223
  1117  0179  34F7               	retlw	247
  1118  017A  34FE               	retlw	254
  1119  017B  34E7               	retlw	231
  1120  017C  349D               	retlw	157
  1121  017D  34D7               	retlw	215
  1122  017E  34BC               	retlw	188
  1123  017F  34C7               	retlw	199
  1124  0180  34C4               	retlw	196
  1125  0181  3448               	retlw	72
  1126  0182  34E5               	retlw	229
  1127  0183  3458               	retlw	88
  1128  0184  3486               	retlw	134
  1129  0185  3468               	retlw	104
  1130  0186  34A7               	retlw	167
  1131  0187  3478               	retlw	120
  1132  0188  3440               	retlw	64
  1133  0189  3408               	retlw	8
  1134  018A  3461               	retlw	97
  1135  018B  3418               	retlw	24
  1136  018C  3402               	retlw	2
  1137  018D  3428               	retlw	40
  1138  018E  3423               	retlw	35
  1139  018F  3438               	retlw	56
  1140  0190  34CC               	retlw	204
  1141  0191  34C9               	retlw	201
  1142  0192  34ED               	retlw	237
  1143  0193  34D9               	retlw	217
  1144  0194  348E               	retlw	142
  1145  0195  34E9               	retlw	233
  1146  0196  34AF               	retlw	175
  1147  0197  34F9               	retlw	249
  1148  0198  3448               	retlw	72
  1149  0199  3489               	retlw	137
  1150  019A  3469               	retlw	105
  1151  019B  3499               	retlw	153
  1152  019C  340A               	retlw	10
  1153  019D  34A9               	retlw	169
  1154  019E  342B               	retlw	43
  1155  019F  34B9               	retlw	185
  1156  01A0  34F5               	retlw	245
  1157  01A1  345A               	retlw	90
  1158  01A2  34D4               	retlw	212
  1159  01A3  344A               	retlw	74
  1160  01A4  34B7               	retlw	183
  1161  01A5  347A               	retlw	122
  1162  01A6  3496               	retlw	150
  1163  01A7  346A               	retlw	106
  1164  01A8  3471               	retlw	113
  1165  01A9  341A               	retlw	26
  1166  01AA  3450               	retlw	80
  1167  01AB  340A               	retlw	10
  1168  01AC  3433               	retlw	51
  1169  01AD  343A               	retlw	58
  1170  01AE  3412               	retlw	18
  1171  01AF  342A               	retlw	42
  1172  01B0  34FD               	retlw	253
  1173  01B1  34DB               	retlw	219
  1174  01B2  34DC               	retlw	220
  1175  01B3  34CB               	retlw	203
  1176  01B4  34BF               	retlw	191
  1177  01B5  34FB               	retlw	251
  1178  01B6  349E               	retlw	158
  1179  01B7  34EB               	retlw	235
  1180  01B8  3479               	retlw	121
  1181  01B9  349B               	retlw	155
  1182  01BA  3458               	retlw	88
  1183  01BB  348B               	retlw	139
  1184  01BC  343B               	retlw	59
  1185  01BD  34BB               	retlw	187
  1186  01BE  341A               	retlw	26
  1187  01BF  34AB               	retlw	171
  1188  01C0  34A6               	retlw	166
  1189  01C1  346C               	retlw	108
  1190  01C2  3487               	retlw	135
  1191  01C3  347C               	retlw	124
  1192  01C4  34E4               	retlw	228
  1193  01C5  344C               	retlw	76
  1194  01C6  34C5               	retlw	197
  1195  01C7  345C               	retlw	92
  1196  01C8  3422               	retlw	34
  1197  01C9  342C               	retlw	44
  1198  01CA  3403               	retlw	3
  1199  01CB  343C               	retlw	60
  1200  01CC  3460               	retlw	96
  1201  01CD  340C               	retlw	12
  1202  01CE  3441               	retlw	65
  1203  01CF  341C               	retlw	28
  1204  01D0  34AE               	retlw	174
  1205  01D1  34ED               	retlw	237
  1206  01D2  348F               	retlw	143
  1207  01D3  34FD               	retlw	253
  1208  01D4  34EC               	retlw	236
  1209  01D5  34CD               	retlw	205
  1210  01D6  34CD               	retlw	205
  1211  01D7  34DD               	retlw	221
  1212  01D8  342A               	retlw	42
  1213  01D9  34AD               	retlw	173
  1214  01DA  340B               	retlw	11
  1215  01DB  34BD               	retlw	189
  1216  01DC  3468               	retlw	104
  1217  01DD  348D               	retlw	141
  1218  01DE  3449               	retlw	73
  1219  01DF  349D               	retlw	157
  1220  01E0  3497               	retlw	151
  1221  01E1  347E               	retlw	126
  1222  01E2  34B6               	retlw	182
  1223  01E3  346E               	retlw	110
  1224  01E4  34D5               	retlw	213
  1225  01E5  345E               	retlw	94
  1226  01E6  34F4               	retlw	244
  1227  01E7  344E               	retlw	78
  1228  01E8  3413               	retlw	19
  1229  01E9  343E               	retlw	62
  1230  01EA  3432               	retlw	50
  1231  01EB  342E               	retlw	46
  1232  01EC  3451               	retlw	81
  1233  01ED  341E               	retlw	30
  1234  01EE  3470               	retlw	112
  1235  01EF  340E               	retlw	14
  1236  01F0  349F               	retlw	159
  1237  01F1  34FF               	retlw	255
  1238  01F2  34BE               	retlw	190
  1239  01F3  34EF               	retlw	239
  1240  01F4  34DD               	retlw	221
  1241  01F5  34DF               	retlw	223
  1242  01F6  34FC               	retlw	252
  1243  01F7  34CF               	retlw	207
  1244  01F8  341B               	retlw	27
  1245  01F9  34BF               	retlw	191
  1246  01FA  343A               	retlw	58
  1247  01FB  34AF               	retlw	175
  1248  01FC  3459               	retlw	89
  1249  01FD  349F               	retlw	159
  1250  01FE  3478               	retlw	120
  1251  01FF  348F               	retlw	143
  1252  0200  3488               	retlw	136
  1253  0201  3491               	retlw	145
  1254  0202  34A9               	retlw	169
  1255  0203  3481               	retlw	129
  1256  0204  34CA               	retlw	202
  1257  0205  34B1               	retlw	177
  1258  0206  34EB               	retlw	235
  1259  0207  34A1               	retlw	161
  1260  0208  340C               	retlw	12
  1261  0209  34D1               	retlw	209
  1262  020A  342D               	retlw	45
  1263  020B  34C1               	retlw	193
  1264  020C  344E               	retlw	78
  1265  020D  34F1               	retlw	241
  1266  020E  346F               	retlw	111
  1267  020F  34E1               	retlw	225
  1268  0210  3480               	retlw	128
  1269  0211  3410               	retlw	16
  1270  0212  34A1               	retlw	161
  1271  0213  3400               	retlw	0
  1272  0214  34C2               	retlw	194
  1273  0215  3430               	retlw	48
  1274  0216  34E3               	retlw	227
  1275  0217  3420               	retlw	32
  1276  0218  3404               	retlw	4
  1277  0219  3450               	retlw	80
  1278  021A  3425               	retlw	37
  1279  021B  3440               	retlw	64
  1280  021C  3446               	retlw	70
  1281  021D  3470               	retlw	112
  1282  021E  3467               	retlw	103
  1283  021F  3460               	retlw	96
  1284  0220  34B9               	retlw	185
  1285  0221  3483               	retlw	131
  1286  0222  3498               	retlw	152
  1287  0223  3493               	retlw	147
  1288  0224  34FB               	retlw	251
  1289  0225  34A3               	retlw	163
  1290  0226  34DA               	retlw	218
  1291  0227  34B3               	retlw	179
  1292  0228  343D               	retlw	61
  1293  0229  34C3               	retlw	195
  1294  022A  341C               	retlw	28
  1295  022B  34D3               	retlw	211
  1296  022C  347F               	retlw	127
  1297  022D  34E3               	retlw	227
  1298  022E  345E               	retlw	94
  1299  022F  34F3               	retlw	243
  1300  0230  34B1               	retlw	177
  1301  0231  3402               	retlw	2
  1302  0232  3490               	retlw	144
  1303  0233  3412               	retlw	18
  1304  0234  34F3               	retlw	243
  1305  0235  3422               	retlw	34
  1306  0236  34D2               	retlw	210
  1307  0237  3432               	retlw	50
  1308  0238  3435               	retlw	53
  1309  0239  3442               	retlw	66
  1310  023A  3414               	retlw	20
  1311  023B  3452               	retlw	82
  1312  023C  3477               	retlw	119
  1313  023D  3462               	retlw	98
  1314  023E  3456               	retlw	86
  1315  023F  3472               	retlw	114
  1316  0240  34EA               	retlw	234
  1317  0241  34B5               	retlw	181
  1318  0242  34CB               	retlw	203
  1319  0243  34A5               	retlw	165
  1320  0244  34A8               	retlw	168
  1321  0245  3495               	retlw	149
  1322  0246  3489               	retlw	137
  1323  0247  3485               	retlw	133
  1324  0248  346E               	retlw	110
  1325  0249  34F5               	retlw	245
  1326  024A  344F               	retlw	79
  1327  024B  34E5               	retlw	229
  1328  024C  342C               	retlw	44
  1329  024D  34D5               	retlw	213
  1330  024E  340D               	retlw	13
  1331  024F  34C5               	retlw	197
  1332  0250  34E2               	retlw	226
  1333  0251  3434               	retlw	52
  1334  0252  34C3               	retlw	195
  1335  0253  3424               	retlw	36
  1336  0254  34A0               	retlw	160
  1337  0255  3414               	retlw	20
  1338  0256  3481               	retlw	129
  1339  0257  3404               	retlw	4
  1340  0258  3466               	retlw	102
  1341  0259  3474               	retlw	116
  1342  025A  3447               	retlw	71
  1343  025B  3464               	retlw	100
  1344  025C  3424               	retlw	36
  1345  025D  3454               	retlw	84
  1346  025E  3405               	retlw	5
  1347  025F  3444               	retlw	68
  1348  0260  34DB               	retlw	219
  1349  0261  34A7               	retlw	167
  1350  0262  34FA               	retlw	250
  1351  0263  34B7               	retlw	183
  1352  0264  3499               	retlw	153
  1353  0265  3487               	retlw	135
  1354  0266  34B8               	retlw	184
  1355  0267  3497               	retlw	151
  1356  0268  345F               	retlw	95
  1357  0269  34E7               	retlw	231
  1358  026A  347E               	retlw	126
  1359  026B  34F7               	retlw	247
  1360  026C  341D               	retlw	29
  1361  026D  34C7               	retlw	199
  1362  026E  343C               	retlw	60
  1363  026F  34D7               	retlw	215
  1364  0270  34D3               	retlw	211
  1365  0271  3426               	retlw	38
  1366  0272  34F2               	retlw	242
  1367  0273  3436               	retlw	54
  1368  0274  3491               	retlw	145
  1369  0275  3406               	retlw	6
  1370  0276  34B0               	retlw	176
  1371  0277  3416               	retlw	22
  1372  0278  3457               	retlw	87
  1373  0279  3466               	retlw	102
  1374  027A  3476               	retlw	118
  1375  027B  3476               	retlw	118
  1376  027C  3415               	retlw	21
  1377  027D  3446               	retlw	70
  1378  027E  3434               	retlw	52
  1379  027F  3456               	retlw	86
  1380  0280  344C               	retlw	76
  1381  0281  34D9               	retlw	217
  1382  0282  346D               	retlw	109
  1383  0283  34C9               	retlw	201
  1384  0284  340E               	retlw	14
  1385  0285  34F9               	retlw	249
  1386  0286  342F               	retlw	47
  1387  0287  34E9               	retlw	233
  1388  0288  34C8               	retlw	200
  1389  0289  3499               	retlw	153
  1390  028A  34E9               	retlw	233
  1391  028B  3489               	retlw	137
  1392  028C  348A               	retlw	138
  1393  028D  34B9               	retlw	185
  1394  028E  34AB               	retlw	171
  1395  028F  34A9               	retlw	169
  1396  0290  3444               	retlw	68
  1397  0291  3458               	retlw	88
  1398  0292  3465               	retlw	101
  1399  0293  3448               	retlw	72
  1400  0294  3406               	retlw	6
  1401  0295  3478               	retlw	120
  1402  0296  3427               	retlw	39
  1403  0297  3468               	retlw	104
  1404  0298  34C0               	retlw	192
  1405  0299  3418               	retlw	24
  1406  029A  34E1               	retlw	225
  1407  029B  3408               	retlw	8
  1408  029C  3482               	retlw	130
  1409  029D  3438               	retlw	56
  1410  029E  34A3               	retlw	163
  1411  029F  3428               	retlw	40
  1412  02A0  347D               	retlw	125
  1413  02A1  34CB               	retlw	203
  1414  02A2  345C               	retlw	92
  1415  02A3  34DB               	retlw	219
  1416  02A4  343F               	retlw	63
  1417  02A5  34EB               	retlw	235
  1418  02A6  341E               	retlw	30
  1419  02A7  34FB               	retlw	251
  1420  02A8  34F9               	retlw	249
  1421  02A9  348B               	retlw	139
  1422  02AA  34D8               	retlw	216
  1423  02AB  349B               	retlw	155
  1424  02AC  34BB               	retlw	187
  1425  02AD  34AB               	retlw	171
  1426  02AE  349A               	retlw	154
  1427  02AF  34BB               	retlw	187
  1428  02B0  3475               	retlw	117
  1429  02B1  344A               	retlw	74
  1430  02B2  3454               	retlw	84
  1431  02B3  345A               	retlw	90
  1432  02B4  3437               	retlw	55
  1433  02B5  346A               	retlw	106
  1434  02B6  3416               	retlw	22
  1435  02B7  347A               	retlw	122
  1436  02B8  34F1               	retlw	241
  1437  02B9  340A               	retlw	10
  1438  02BA  34D0               	retlw	208
  1439  02BB  341A               	retlw	26
  1440  02BC  34B3               	retlw	179
  1441  02BD  342A               	retlw	42
  1442  02BE  3492               	retlw	146
  1443  02BF  343A               	retlw	58
  1444  02C0  342E               	retlw	46
  1445  02C1  34FD               	retlw	253
  1446  02C2  340F               	retlw	15
  1447  02C3  34ED               	retlw	237
  1448  02C4  346C               	retlw	108
  1449  02C5  34DD               	retlw	221
  1450  02C6  344D               	retlw	77
  1451  02C7  34CD               	retlw	205
  1452  02C8  34AA               	retlw	170
  1453  02C9  34BD               	retlw	189
  1454  02CA  348B               	retlw	139
  1455  02CB  34AD               	retlw	173
  1456  02CC  34E8               	retlw	232
  1457  02CD  349D               	retlw	157
  1458  02CE  34C9               	retlw	201
  1459  02CF  348D               	retlw	141
  1460  02D0  3426               	retlw	38
  1461  02D1  347C               	retlw	124
  1462  02D2  3407               	retlw	7
  1463  02D3  346C               	retlw	108
  1464  02D4  3464               	retlw	100
  1465  02D5  345C               	retlw	92
  1466  02D6  3445               	retlw	69
  1467  02D7  344C               	retlw	76
  1468  02D8  34A2               	retlw	162
  1469  02D9  343C               	retlw	60
  1470  02DA  3483               	retlw	131
  1471  02DB  342C               	retlw	44
  1472  02DC  34E0               	retlw	224
  1473  02DD  341C               	retlw	28
  1474  02DE  34C1               	retlw	193
  1475  02DF  340C               	retlw	12
  1476  02E0  341F               	retlw	31
  1477  02E1  34EF               	retlw	239
  1478  02E2  343E               	retlw	62
  1479  02E3  34FF               	retlw	255
  1480  02E4  345D               	retlw	93
  1481  02E5  34CF               	retlw	207
  1482  02E6  347C               	retlw	124
  1483  02E7  34DF               	retlw	223
  1484  02E8  349B               	retlw	155
  1485  02E9  34AF               	retlw	175
  1486  02EA  34BA               	retlw	186
  1487  02EB  34BF               	retlw	191
  1488  02EC  34D9               	retlw	217
  1489  02ED  348F               	retlw	143
  1490  02EE  34F8               	retlw	248
  1491  02EF  349F               	retlw	159
  1492  02F0  3417               	retlw	23
  1493  02F1  346E               	retlw	110
  1494  02F2  3436               	retlw	54
  1495  02F3  347E               	retlw	126
  1496  02F4  3455               	retlw	85
  1497  02F5  344E               	retlw	78
  1498  02F6  3474               	retlw	116
  1499  02F7  345E               	retlw	94
  1500  02F8  3493               	retlw	147
  1501  02F9  342E               	retlw	46
  1502  02FA  34B2               	retlw	178
  1503  02FB  343E               	retlw	62
  1504  02FC  34D1               	retlw	209
  1505  02FD  340E               	retlw	14
  1506  02FE  34F0               	retlw	240
  1507  02FF  341E               	retlw	30
  1508  0300                     __end_of_correct:	
  1509                           
  1510                           	psect	nvBANK0
  1511  0049                     __pnvBANK0:	
  1512  0049                     _usageCounterTimer:	
  1513  0049                     	ds	1
  1514  000B                     _INTCONbits	set	11
  1515  0011                     _PIR1bits	set	17
  1516  0013                     _PIR3bits	set	19
  1517  0018                     _T1CONbits	set	24
  1518  0019                     _T1GCONbits	set	25
  1519  0017                     _TMR1H	set	23
  1520  0016                     _TMR1L	set	22
  1521  0018                     _CARRY	set	24
  1522  005F                     _GIE	set	95
  1523  0099                     _OSCCONbits	set	153
  1524  0091                     _PIE1bits	set	145
  1525  0093                     _PIE3bits	set	147
  1526  008C                     _TRISAbits	set	140
  1527  008D                     _TRISBbits	set	141
  1528  008E                     _TRISCbits	set	142
  1529  010D                     _LATBbits	set	269
  1530  010E                     _LATCbits	set	270
  1531  0191                     _EEADR	set	401
  1532  018C                     _ANSELAbits	set	396
  1533  018D                     _ANSELBbits	set	397
  1534  018E                     _ANSELCbits	set	398
  1535  0195                     _EECON1	set	405
  1536  0196                     _EECON2	set	406
  1537  0193                     _EEDATA	set	403
  1538  0CA8                     _RD	set	3240
  1539  0CA9                     _WR	set	3241
  1540  0CAA                     _WREN	set	3242
  1541  041D                     _PR6bits	set	1053
  1542  041E                     _T6CONbits	set	1054
  1543  041C                     _TMR6bits	set	1052
  1544                           
  1545                           ; #config settings
  1546  0000                     
  1547                           	psect	cinit
  1548  0010                     start_initialization:	
  1549  0010                     __initialization:	
  1550                           
  1551                           ; Clear objects allocated to COMMON
  1552  0010  01F6               	clrf	__pbssCOMMON& (0+127)
  1553  0011  01F7               	clrf	(__pbssCOMMON+1)& (0+127)
  1554  0012  01F8               	clrf	(__pbssCOMMON+2)& (0+127)
  1555  0013  01F9               	clrf	(__pbssCOMMON+3)& (0+127)
  1556                           
  1557                           ; Clear objects allocated to BANK0
  1558  0014  3039               	movlw	low __pbssBANK0
  1559  0015  0084               	movwf	4
  1560  0016  3000               	movlw	high __pbssBANK0
  1561  0017  0085               	movwf	5
  1562  0018  3010               	movlw	16
  1563  0019  3185  256E  3180   	fcall	clear_ram0
  1564                           
  1565                           ; Clear objects allocated to BANK1
  1566  001C  30A0               	movlw	low __pbssBANK1
  1567  001D  0084               	movwf	4
  1568  001E  3000               	movlw	high __pbssBANK1
  1569  001F  0085               	movwf	5
  1570  0020  3040               	movlw	64
  1571  0021  3185  256E         	fcall	clear_ram0
  1572  0023                     end_of_initialization:	
  1573                           ;End of C runtime variable initialization code
  1574                           
  1575  0023                     __end_of__initialization:	
  1576  0023  0020               	movlb	0
  1577  0024  3185  2D67         	ljmp	_main	;jump to C main() function
  1578                           
  1579                           	psect	bssCOMMON
  1580  0076                     __pbssCOMMON:	
  1581  0076                     _minuteFlag:	
  1582  0076                     	ds	1
  1583  0077                     _numTimers:	
  1584  0077                     	ds	1
  1585  0078                     _unitIsDead:	
  1586  0078                     	ds	1
  1587  0079                     _usageCounterOn:	
  1588  0079                     	ds	1
  1589                           
  1590                           	psect	bssBANK0
  1591  0039                     __pbssBANK0:	
  1592  0039                     _delayTimer:	
  1593  0039                     	ds	2
  1594  003B                     _secondsCounter:	
  1595  003B                     	ds	2
  1596  003D                     _secondsSinceOn:	
  1597  003D                     	ds	2
  1598  003F                     _ticksPerSecondCounter:	
  1599  003F                     	ds	2
  1600  0041                     _UCToggle:	
  1601  0041                     	ds	1
  1602  0042                     _Config:	
  1603  0042                     	ds	7
  1604                           
  1605                           	psect	bssBANK1
  1606  00A0                     __pbssBANK1:	
  1607  00A0                     _timers:	
  1608  00A0                     	ds	64
  1609                           
  1610                           	psect	clrtext
  1611  056E                     clear_ram0:	
  1612                           ;	Called with FSR0 containing the base address, and
  1613                           ;	WREG with the size to clear
  1614                           
  1615  056E  0064               	clrwdt	;clear the watchdog before getting into this loop
  1616  056F                     clrloop0:	
  1617  056F  0180               	clrf	0	;clear RAM location pointed to by FSR
  1618  0570  3101               	addfsr 0,1
  1619  0571  0B89               	decfsz	9,f	;Have we reached the end of clearing yet?
  1620  0572  2D6F               	goto	clrloop0	;have we reached the end yet?
  1621  0573  3400               	retlw	0	;all done for this memory range, return
  1622                           
  1623                           	psect	cstackCOMMON
  1624  0070                     __pcstackCOMMON:	
  1625  0070                     ?_timerInterrupt:	
  1626  0070                     ??_timerInterrupt:	
  1627                           ; 0 bytes @ 0x0
  1628                           
  1629  0070                     ?_initialise:	
  1630                           ; 0 bytes @ 0x0
  1631                           
  1632  0070                     ?_usageCounterService:	
  1633                           ; 0 bytes @ 0x0
  1634                           
  1635  0070                     ?_hardwareInit:	
  1636                           ; 0 bytes @ 0x0
  1637                           
  1638  0070                     ?_timerInit:	
  1639                           ; 0 bytes @ 0x0
  1640                           
  1641  0070                     ?_usageCounterInit:	
  1642                           ; 0 bytes @ 0x0
  1643                           
  1644  0070                     ?_interruptsInit:	
  1645                           ; 0 bytes @ 0x0
  1646                           
  1647  0070                     ?_timerLock:	
  1648                           ; 0 bytes @ 0x0
  1649                           
  1650  0070                     ?_initInterrupt:	
  1651                           ; 0 bytes @ 0x0
  1652                           
  1653  0070                     ?_ISRCode:	
  1654                           ; 0 bytes @ 0x0
  1655                           
  1656  0070                     ?_main:	
  1657                           ; 0 bytes @ 0x0
  1658                           
  1659  0070                     ?_initTimer6:	
  1660                           ; 0 bytes @ 0x0
  1661                           
  1662  0070                     ?_timerGet:	
  1663                           ; 0 bytes @ 0x0
  1664                           
  1665                           
  1666                           ; 1 bytes @ 0x0
  1667  0070                     	ds	2
  1668  0072                     timerInterrupt@i:	
  1669                           
  1670                           ; 1 bytes @ 0x2
  1671  0072                     	ds	1
  1672  0073                     ??_ISRCode:	
  1673                           
  1674                           ; 0 bytes @ 0x3
  1675  0073                     	ds	1
  1676  0074                     ??_hardwareInit:	
  1677  0074                     ??_timerInit:	
  1678                           ; 0 bytes @ 0x4
  1679                           
  1680  0074                     ??_interruptsInit:	
  1681                           ; 0 bytes @ 0x4
  1682                           
  1683  0074                     ??_timerLock:	
  1684                           ; 0 bytes @ 0x4
  1685                           
  1686  0074                     ??_initInterrupt:	
  1687                           ; 0 bytes @ 0x4
  1688                           
  1689  0074                     ?_timerSet:	
  1690                           ; 0 bytes @ 0x4
  1691                           
  1692  0074                     ??_timerRead:	
  1693                           ; 0 bytes @ 0x4
  1694                           
  1695  0074                     ?_timerDelay:	
  1696                           ; 0 bytes @ 0x4
  1697                           
  1698  0074                     ??_initTimer6:	
  1699                           ; 0 bytes @ 0x4
  1700                           
  1701  0074                     ??___awmod:	
  1702                           ; 0 bytes @ 0x4
  1703                           
  1704  0074                     timerLock@index:	
  1705                           ; 0 bytes @ 0x4
  1706                           
  1707  0074                     timerSet@duration:	
  1708                           ; 1 bytes @ 0x4
  1709                           
  1710  0074                     timerDelay@duration:	
  1711                           ; 2 bytes @ 0x4
  1712                           
  1713                           
  1714                           ; 2 bytes @ 0x4
  1715  0074                     	ds	1
  1716  0075                     ??_timerGet:	
  1717  0075                     ??___awdiv:	
  1718                           ; 0 bytes @ 0x5
  1719                           
  1720                           
  1721                           ; 0 bytes @ 0x5
  1722  0075                     	ds	1
  1723  0076                     ??_initialise:	
  1724  0076                     ??_main:	
  1725                           ; 0 bytes @ 0x6
  1726                           
  1727  0076                     ??_timerSet:	
  1728                           ; 0 bytes @ 0x6
  1729                           
  1730  0076                     ??_timerDelay:	
  1731                           ; 0 bytes @ 0x6
  1732                           
  1733                           
  1734                           	psect	cstackBANK0
  1735  0020                     __pcstackBANK0:	
  1736                           ; 0 bytes @ 0x6
  1737                           
  1738  0020                     ?_timerRead:	
  1739  0020                     ?___awmod:	
  1740                           ; 2 bytes @ 0x0
  1741                           
  1742  0020                     timerGet@result:	
  1743                           ; 2 bytes @ 0x0
  1744                           
  1745  0020                     timerSet@index:	
  1746                           ; 1 bytes @ 0x0
  1747                           
  1748  0020                     ___awmod@divisor:	
  1749                           ; 1 bytes @ 0x0
  1750                           
  1751                           
  1752                           ; 2 bytes @ 0x0
  1753  0020                     	ds	1
  1754  0021                     ??_usageCounterInit:	
  1755                           
  1756                           ; 0 bytes @ 0x1
  1757  0021                     	ds	1
  1758  0022                     ___awmod@dividend:	
  1759                           
  1760                           ; 2 bytes @ 0x2
  1761  0022                     	ds	1
  1762  0023                     timerRead@result:	
  1763                           
  1764                           ; 2 bytes @ 0x3
  1765  0023                     	ds	1
  1766  0024                     ___awmod@counter:	
  1767                           
  1768                           ; 1 bytes @ 0x4
  1769  0024                     	ds	1
  1770  0025                     timerRead@index:	
  1771  0025                     ___awmod@sign:	
  1772                           ; 1 bytes @ 0x5
  1773                           
  1774                           
  1775                           ; 1 bytes @ 0x5
  1776  0025                     	ds	1
  1777  0026                     ?___awdiv:	
  1778  0026                     ___awdiv@divisor:	
  1779                           ; 2 bytes @ 0x6
  1780                           
  1781                           
  1782                           ; 2 bytes @ 0x6
  1783  0026                     	ds	2
  1784  0028                     ___awdiv@dividend:	
  1785                           
  1786                           ; 2 bytes @ 0x8
  1787  0028                     	ds	2
  1788  002A                     ___awdiv@counter:	
  1789                           
  1790                           ; 1 bytes @ 0xA
  1791  002A                     	ds	1
  1792  002B                     ___awdiv@sign:	
  1793                           
  1794                           ; 1 bytes @ 0xB
  1795  002B                     	ds	1
  1796  002C                     ___awdiv@quotient:	
  1797                           
  1798                           ; 2 bytes @ 0xC
  1799  002C                     	ds	2
  1800  002E                     ??_usageCounterService:	
  1801                           
  1802                           ; 0 bytes @ 0xE
  1803  002E                     	ds	1
  1804  002F                     usageCounterService@thousands:	
  1805                           
  1806                           ; 2 bytes @ 0xF
  1807  002F                     	ds	2
  1808  0031                     usageCounterService@hundreds:	
  1809                           
  1810                           ; 2 bytes @ 0x11
  1811  0031                     	ds	2
  1812  0033                     usageCounterService@tens:	
  1813                           
  1814                           ; 2 bytes @ 0x13
  1815  0033                     	ds	2
  1816  0035                     usageCounterService@hours:	
  1817                           
  1818                           ; 2 bytes @ 0x15
  1819  0035                     	ds	2
  1820  0037                     usageCounterService@i:	
  1821                           
  1822                           ; 2 bytes @ 0x17
  1823  0037                     	ds	2
  1824                           
  1825                           	psect	maintext
  1826  0567                     __pmaintext:	
  1827 ;;
  1828 ;;Main: autosize = 0, tempsize = 0, incstack = 0, save=0
  1829 ;;
  1830 ;; *************** function _main *****************
  1831 ;; Defined at:
  1832 ;;		line 35 in file "source/main.c"
  1833 ;; Parameters:    Size  Location     Type
  1834 ;;		None
  1835 ;; Auto vars:     Size  Location     Type
  1836 ;;		None
  1837 ;; Return value:  Size  Location     Type
  1838 ;;		None               void
  1839 ;; Registers used:
  1840 ;;		wreg, fsr1l, fsr1h, status,2, status,0, pclath, cstack
  1841 ;; Tracked objects:
  1842 ;;		On entry : B1F/0
  1843 ;;		On exit  : 0/0
  1844 ;;		Unchanged: 0/0
  1845 ;; Data sizes:     COMMON   BANK0   BANK1   BANK2
  1846 ;;      Params:         0       0       0       0
  1847 ;;      Locals:         0       0       0       0
  1848 ;;      Temps:          0       0       0       0
  1849 ;;      Totals:         0       0       0       0
  1850 ;;Total ram usage:        0 bytes
  1851 ;; Hardware stack levels required when called:    6
  1852 ;; This function calls:
  1853 ;;		_initialise
  1854 ;;		_usageCounterService
  1855 ;; This function is called by:
  1856 ;;		Startup code after reset
  1857 ;; This function uses a non-reentrant model
  1858 ;;
  1859                           
  1860                           
  1861                           ;psect for function _main
  1862  0567                     _main:	
  1863                           
  1864                           ;main.c: 37: initialise();
  1865                           
  1866                           ;incstack = 0
  1867                           ; Regs used in _main: [wreg+fsr1l+fsr1h+status,2+status,0+pclath+cstack]
  1868  0567  3185  2551  3185   	fcall	_initialise
  1869  056A                     l102:	
  1870                           ;main.c: 38: while( 1 )
  1871                           
  1872                           
  1873                           ;main.c: 39: {
  1874                           ;main.c: 44: usageCounterService();
  1875  056A  3183  2300  3185   	fcall	_usageCounterService
  1876  056D  2D6A               	goto	l102
  1877  056E                     __end_of_main:	
  1878                           
  1879                           	psect	text1
  1880  0300                     __ptext1:	
  1881 ;; *************** function _usageCounterService *****************
  1882 ;; Defined at:
  1883 ;;		line 102 in file "source/usagecounter.c"
  1884 ;; Parameters:    Size  Location     Type
  1885 ;;		None
  1886 ;; Auto vars:     Size  Location     Type
  1887 ;;  hours           2   21[BANK0 ] int 
  1888 ;;  tens            2   19[BANK0 ] int 
  1889 ;;  hundreds        2   17[BANK0 ] int 
  1890 ;;  thousands       2   15[BANK0 ] int 
  1891 ;;  i               2   23[BANK0 ] int 
  1892 ;; Return value:  Size  Location     Type
  1893 ;;		None               void
  1894 ;; Registers used:
  1895 ;;		wreg, fsr1l, fsr1h, status,2, status,0, pclath, cstack
  1896 ;; Tracked objects:
  1897 ;;		On entry : 0/0
  1898 ;;		On exit  : 0/0
  1899 ;;		Unchanged: 0/0
  1900 ;; Data sizes:     COMMON   BANK0   BANK1   BANK2
  1901 ;;      Params:         0       0       0       0
  1902 ;;      Locals:         0      10       0       0
  1903 ;;      Temps:          0       1       0       0
  1904 ;;      Totals:         0      11       0       0
  1905 ;;Total ram usage:       11 bytes
  1906 ;; Hardware stack levels used:    1
  1907 ;; Hardware stack levels required when called:    3
  1908 ;; This function calls:
  1909 ;;		___awdiv
  1910 ;;		___awmod
  1911 ;;		_timerDelay
  1912 ;;		_timerRead
  1913 ;;		_timerSet
  1914 ;; This function is called by:
  1915 ;;		_main
  1916 ;; This function uses a non-reentrant model
  1917 ;;
  1918                           
  1919                           
  1920                           ;psect for function _usageCounterService
  1921  0300                     _usageCounterService:	
  1922                           
  1923                           ;usagecounter.c: 104: int i ;
  1924                           ;usagecounter.c: 106: if ( timerRead(usageCounterTimer) == 0 )
  1925                           
  1926                           ;incstack = 0
  1927                           ; Regs used in _usageCounterService: [wreg+fsr1l+fsr1h+status,2+status,0+pclath+cstack]
  1928  0300  0020               	movlb	0	; select bank0
  1929  0301  0849               	movf	_usageCounterTimer,w
  1930  0302  3184  24DC  3183   	fcall	_timerRead
  1931  0305  0020               	movlb	0	; select bank0
  1932  0306  0820               	movf	?_timerRead,w
  1933  0307  0421               	iorwf	?_timerRead+1,w
  1934  0308  1D03               	btfss	3,2
  1935  0309  0008               	return
  1936                           
  1937                           ;usagecounter.c: 107: {
  1938                           ;usagecounter.c: 109: int hours = 7898;
  1939  030A  30DA               	movlw	218
  1940  030B  00B5               	movwf	usageCounterService@hours
  1941  030C  301E               	movlw	30
  1942  030D  00B6               	movwf	usageCounterService@hours+1
  1943                           
  1944                           ;usagecounter.c: 110: int thousands = hours / 1000;
  1945  030E  30E8               	movlw	232
  1946  030F  00A6               	movwf	___awdiv@divisor
  1947  0310  3003               	movlw	3
  1948  0311  00A7               	movwf	___awdiv@divisor+1
  1949  0312  0836               	movf	usageCounterService@hours+1,w
  1950  0313  00A9               	movwf	___awdiv@dividend+1
  1951  0314  0835               	movf	usageCounterService@hours,w
  1952  0315  00A8               	movwf	___awdiv@dividend
  1953  0316  3183  23D3  3183   	fcall	___awdiv
  1954  0319  0020               	movlb	0	; select bank0
  1955  031A  0827               	movf	?___awdiv+1,w
  1956  031B  00B0               	movwf	usageCounterService@thousands+1
  1957  031C  0826               	movf	?___awdiv,w
  1958  031D  00AF               	movwf	usageCounterService@thousands
  1959                           
  1960                           ;usagecounter.c: 111: int hundreds = (hours % 1000)/100;
  1961  031E  3064               	movlw	100
  1962  031F  00A6               	movwf	___awdiv@divisor
  1963  0320  3000               	movlw	0
  1964  0321  00A7               	movwf	___awdiv@divisor+1
  1965  0322  0836               	movf	usageCounterService@hours+1,w
  1966  0323  00A3               	movwf	___awmod@dividend+1
  1967  0324  0835               	movf	usageCounterService@hours,w
  1968  0325  00A2               	movwf	___awmod@dividend
  1969  0326  30E8               	movlw	232
  1970  0327  00A0               	movwf	___awmod@divisor
  1971  0328  3003               	movlw	3
  1972  0329  00A1               	movwf	___awmod@divisor+1
  1973  032A  3184  2425  3183   	fcall	___awmod
  1974  032D  0020               	movlb	0	; select bank0
  1975  032E  0821               	movf	?___awmod+1,w
  1976  032F  00A9               	movwf	___awdiv@dividend+1
  1977  0330  0820               	movf	?___awmod,w
  1978  0331  00A8               	movwf	___awdiv@dividend
  1979  0332  3183  23D3  3183   	fcall	___awdiv
  1980  0335  0020               	movlb	0	; select bank0
  1981  0336  0827               	movf	?___awdiv+1,w
  1982  0337  00B2               	movwf	usageCounterService@hundreds+1
  1983  0338  0826               	movf	?___awdiv,w
  1984  0339  00B1               	movwf	usageCounterService@hundreds
  1985                           
  1986                           ;usagecounter.c: 112: int tens = (hours % 100)/10;
  1987  033A  300A               	movlw	10
  1988  033B  00A6               	movwf	___awdiv@divisor
  1989  033C  3000               	movlw	0
  1990  033D  00A7               	movwf	___awdiv@divisor+1
  1991  033E  0836               	movf	usageCounterService@hours+1,w
  1992  033F  00A3               	movwf	___awmod@dividend+1
  1993  0340  0835               	movf	usageCounterService@hours,w
  1994  0341  00A2               	movwf	___awmod@dividend
  1995  0342  3064               	movlw	100
  1996  0343  00A0               	movwf	___awmod@divisor
  1997  0344  3000               	movlw	0
  1998  0345  00A1               	movwf	___awmod@divisor+1
  1999  0346  3184  2425  3183   	fcall	___awmod
  2000  0349  0020               	movlb	0	; select bank0
  2001  034A  0821               	movf	?___awmod+1,w
  2002  034B  00A9               	movwf	___awdiv@dividend+1
  2003  034C  0820               	movf	?___awmod,w
  2004  034D  00A8               	movwf	___awdiv@dividend
  2005  034E  3183  23D3  3183   	fcall	___awdiv
  2006  0351  0020               	movlb	0	; select bank0
  2007  0352  0827               	movf	?___awdiv+1,w
  2008  0353  00B4               	movwf	usageCounterService@tens+1
  2009  0354  0826               	movf	?___awdiv,w
  2010  0355  00B3               	movwf	usageCounterService@tens
  2011                           
  2012                           ;usagecounter.c: 114: for ( i = 0; i < thousands; i++)
  2013  0356  01B7               	clrf	usageCounterService@i
  2014  0357  01B8               	clrf	usageCounterService@i+1
  2015  0358                     l1713:	
  2016  0358  0838               	movf	usageCounterService@i+1,w
  2017  0359  3A80               	xorlw	128
  2018  035A  00AE               	movwf	??_usageCounterService
  2019  035B  0830               	movf	usageCounterService@thousands+1,w
  2020  035C  3A80               	xorlw	128
  2021  035D  022E               	subwf	??_usageCounterService,w
  2022  035E  1D03               	skipz
  2023  035F  2B62               	goto	u1315
  2024  0360  082F               	movf	usageCounterService@thousands,w
  2025  0361  0237               	subwf	usageCounterService@i,w
  2026  0362                     u1315:	
  2027  0362  1803               	btfsc	3,0
  2028  0363  2B7C               	goto	l1715
  2029                           
  2030                           ;usagecounter.c: 115: {
  2031                           ;usagecounter.c: 116: LATBbits.LATB7 = 1;
  2032  0364  0022               	movlb	2	; select bank2
  2033  0365  178D               	bsf	13,7	;volatile
  2034                           
  2035                           ;usagecounter.c: 117: timerDelay( 500 );
  2036  0366  30F4               	movlw	244
  2037  0367  00F4               	movwf	timerDelay@duration
  2038  0368  3001               	movlw	1
  2039  0369  00F5               	movwf	timerDelay@duration+1
  2040  036A  3185  255D  3183   	fcall	_timerDelay
  2041                           
  2042                           ;usagecounter.c: 118: LATBbits.LATB7 = 0;
  2043  036D  0022               	movlb	2	; select bank2
  2044  036E  138D               	bcf	13,7	;volatile
  2045                           
  2046                           ;usagecounter.c: 119: timerDelay( 500 );
  2047  036F  30F4               	movlw	244
  2048  0370  00F4               	movwf	timerDelay@duration
  2049  0371  3001               	movlw	1
  2050  0372  00F5               	movwf	timerDelay@duration+1
  2051  0373  3185  255D  3183   	fcall	_timerDelay
  2052  0376  3001               	movlw	1
  2053  0377  0020               	movlb	0	; select bank0
  2054  0378  07B7               	addwf	usageCounterService@i,f
  2055  0379  3000               	movlw	0
  2056  037A  3DB8               	addwfc	usageCounterService@i+1,f
  2057  037B  2B58               	goto	l1713
  2058  037C                     l1715:	
  2059                           
  2060                           ;usagecounter.c: 120: }
  2061                           ;usagecounter.c: 122: for ( i = 0; i < hundreds; i++)
  2062  037C  0020               	movlb	0	; select bank0
  2063  037D  01B7               	clrf	usageCounterService@i
  2064  037E  01B8               	clrf	usageCounterService@i+1
  2065  037F                     l1723:	
  2066  037F  0838               	movf	usageCounterService@i+1,w
  2067  0380  3A80               	xorlw	128
  2068  0381  00AE               	movwf	??_usageCounterService
  2069  0382  0832               	movf	usageCounterService@hundreds+1,w
  2070  0383  3A80               	xorlw	128
  2071  0384  022E               	subwf	??_usageCounterService,w
  2072  0385  1D03               	skipz
  2073  0386  2B89               	goto	u1325
  2074  0387  0831               	movf	usageCounterService@hundreds,w
  2075  0388  0237               	subwf	usageCounterService@i,w
  2076  0389                     u1325:	
  2077  0389  1803               	btfsc	3,0
  2078  038A  2BA3               	goto	l1725
  2079                           
  2080                           ;usagecounter.c: 123: {
  2081                           ;usagecounter.c: 124: LATBbits.LATB6 = 1;
  2082  038B  0022               	movlb	2	; select bank2
  2083  038C  170D               	bsf	13,6	;volatile
  2084                           
  2085                           ;usagecounter.c: 125: timerDelay( 500 );
  2086  038D  30F4               	movlw	244
  2087  038E  00F4               	movwf	timerDelay@duration
  2088  038F  3001               	movlw	1
  2089  0390  00F5               	movwf	timerDelay@duration+1
  2090  0391  3185  255D  3183   	fcall	_timerDelay
  2091                           
  2092                           ;usagecounter.c: 126: LATBbits.LATB6 = 0;
  2093  0394  0022               	movlb	2	; select bank2
  2094  0395  130D               	bcf	13,6	;volatile
  2095                           
  2096                           ;usagecounter.c: 127: timerDelay( 500 );
  2097  0396  30F4               	movlw	244
  2098  0397  00F4               	movwf	timerDelay@duration
  2099  0398  3001               	movlw	1
  2100  0399  00F5               	movwf	timerDelay@duration+1
  2101  039A  3185  255D  3183   	fcall	_timerDelay
  2102  039D  3001               	movlw	1
  2103  039E  0020               	movlb	0	; select bank0
  2104  039F  07B7               	addwf	usageCounterService@i,f
  2105  03A0  3000               	movlw	0
  2106  03A1  3DB8               	addwfc	usageCounterService@i+1,f
  2107  03A2  2B7F               	goto	l1723
  2108  03A3                     l1725:	
  2109                           
  2110                           ;usagecounter.c: 128: }
  2111                           ;usagecounter.c: 130: for ( i = 0; i < tens; i++)
  2112  03A3  0020               	movlb	0	; select bank0
  2113  03A4  01B7               	clrf	usageCounterService@i
  2114  03A5  01B8               	clrf	usageCounterService@i+1
  2115  03A6                     l1733:	
  2116  03A6  0838               	movf	usageCounterService@i+1,w
  2117  03A7  3A80               	xorlw	128
  2118  03A8  00AE               	movwf	??_usageCounterService
  2119  03A9  0834               	movf	usageCounterService@tens+1,w
  2120  03AA  3A80               	xorlw	128
  2121  03AB  022E               	subwf	??_usageCounterService,w
  2122  03AC  1D03               	skipz
  2123  03AD  2BB0               	goto	u1335
  2124  03AE  0833               	movf	usageCounterService@tens,w
  2125  03AF  0237               	subwf	usageCounterService@i,w
  2126  03B0                     u1335:	
  2127  03B0  1803               	btfsc	3,0
  2128  03B1  2BCA               	goto	l1735
  2129                           
  2130                           ;usagecounter.c: 131: {
  2131                           ;usagecounter.c: 132: LATBbits.LATB5 = 1;
  2132  03B2  0022               	movlb	2	; select bank2
  2133  03B3  168D               	bsf	13,5	;volatile
  2134                           
  2135                           ;usagecounter.c: 133: timerDelay( 500 );
  2136  03B4  30F4               	movlw	244
  2137  03B5  00F4               	movwf	timerDelay@duration
  2138  03B6  3001               	movlw	1
  2139  03B7  00F5               	movwf	timerDelay@duration+1
  2140  03B8  3185  255D  3183   	fcall	_timerDelay
  2141                           
  2142                           ;usagecounter.c: 134: LATBbits.LATB5 = 0;
  2143  03BB  0022               	movlb	2	; select bank2
  2144  03BC  128D               	bcf	13,5	;volatile
  2145                           
  2146                           ;usagecounter.c: 135: timerDelay( 500 );
  2147  03BD  30F4               	movlw	244
  2148  03BE  00F4               	movwf	timerDelay@duration
  2149  03BF  3001               	movlw	1
  2150  03C0  00F5               	movwf	timerDelay@duration+1
  2151  03C1  3185  255D  3183   	fcall	_timerDelay
  2152  03C4  3001               	movlw	1
  2153  03C5  0020               	movlb	0	; select bank0
  2154  03C6  07B7               	addwf	usageCounterService@i,f
  2155  03C7  3000               	movlw	0
  2156  03C8  3DB8               	addwfc	usageCounterService@i+1,f
  2157  03C9  2BA6               	goto	l1733
  2158  03CA                     l1735:	
  2159                           
  2160                           ;usagecounter.c: 136: }
  2161                           ;usagecounter.c: 138: timerSet( usageCounterTimer, 15000 );
  2162  03CA  3098               	movlw	152
  2163  03CB  00F4               	movwf	timerSet@duration
  2164  03CC  303A               	movlw	58
  2165  03CD  00F5               	movwf	timerSet@duration+1
  2166  03CE  0020               	movlb	0	; select bank0
  2167  03CF  0849               	movf	_usageCounterTimer,w
  2168  03D0  3185  2525         	fcall	_timerSet
  2169  03D2  0008               	return
  2170  03D3                     __end_of_usageCounterService:	
  2171                           
  2172                           	psect	text2
  2173  04DC                     __ptext2:	
  2174 ;; *************** function _timerRead *****************
  2175 ;; Defined at:
  2176 ;;		line 123 in file "source/timer.c"
  2177 ;; Parameters:    Size  Location     Type
  2178 ;;  index           1    wreg     unsigned char 
  2179 ;; Auto vars:     Size  Location     Type
  2180 ;;  index           1    5[BANK0 ] unsigned char 
  2181 ;;  result          2    3[BANK0 ] unsigned int 
  2182 ;; Return value:  Size  Location     Type
  2183 ;;                  2    0[BANK0 ] unsigned int 
  2184 ;; Registers used:
  2185 ;;		wreg, fsr1l, fsr1h, status,2, status,0
  2186 ;; Tracked objects:
  2187 ;;		On entry : 0/0
  2188 ;;		On exit  : 0/0
  2189 ;;		Unchanged: 0/0
  2190 ;; Data sizes:     COMMON   BANK0   BANK1   BANK2
  2191 ;;      Params:         0       3       0       0
  2192 ;;      Locals:         0       3       0       0
  2193 ;;      Temps:          0       0       0       0
  2194 ;;      Totals:         0       6       0       0
  2195 ;;Total ram usage:        6 bytes
  2196 ;; Hardware stack levels used:    1
  2197 ;; Hardware stack levels required when called:    2
  2198 ;; This function calls:
  2199 ;;		Nothing
  2200 ;; This function is called by:
  2201 ;;		_usageCounterService
  2202 ;; This function uses a non-reentrant model
  2203 ;;
  2204                           
  2205                           
  2206                           ;psect for function _timerRead
  2207  04DC                     _timerRead:	
  2208                           
  2209                           ;incstack = 0
  2210                           ; Regs used in _timerRead: [wreg+fsr1l+fsr1h+status,2+status,0]
  2211                           ;timerRead@index stored from wreg
  2212  04DC  0020               	movlb	0	; select bank0
  2213  04DD  00A5               	movwf	timerRead@index
  2214                           
  2215                           ;timer.c: 125: unsigned int result = 0xFFFF;
  2216  04DE  30FF               	movlw	255
  2217  04DF  00A3               	movwf	timerRead@result
  2218  04E0  30FF               	movlw	255
  2219  04E1  00A4               	movwf	timerRead@result+1
  2220                           
  2221                           ;timer.c: 126: if ( index < numTimers )
  2222  04E2  0877               	movf	_numTimers,w
  2223  04E3  0225               	subwf	timerRead@index,w
  2224  04E4  1803               	skipnc
  2225  04E5  2CEE               	goto	l1647
  2226                           
  2227                           ;timer.c: 127: {
  2228                           ;timer.c: 128: result = timers[index];
  2229  04E6  3525               	lslf	timerRead@index,w
  2230  04E7  3EA0               	addlw	(low (_timers| 0))& (0+255)
  2231  04E8  0086               	movwf	6
  2232  04E9  0187               	clrf	7
  2233  04EA  3F40               	moviw [0]fsr1
  2234  04EB  00A3               	movwf	timerRead@result
  2235  04EC  3F41               	moviw [1]fsr1
  2236  04ED  00A4               	movwf	timerRead@result+1
  2237  04EE                     l1647:	
  2238                           
  2239                           ;timer.c: 129: }
  2240                           ;timer.c: 130: return ( result );
  2241  04EE  0824               	movf	timerRead@result+1,w
  2242  04EF  00A1               	movwf	?_timerRead+1
  2243  04F0  0823               	movf	timerRead@result,w
  2244  04F1  00A0               	movwf	?_timerRead
  2245  04F2  0008               	return
  2246  04F3                     __end_of_timerRead:	
  2247                           
  2248                           	psect	text3
  2249  055D                     __ptext3:	
  2250 ;; *************** function _timerDelay *****************
  2251 ;; Defined at:
  2252 ;;		line 157 in file "source/timer.c"
  2253 ;; Parameters:    Size  Location     Type
  2254 ;;  duration        2    4[COMMON] unsigned int 
  2255 ;; Auto vars:     Size  Location     Type
  2256 ;;		None
  2257 ;; Return value:  Size  Location     Type
  2258 ;;		None               void
  2259 ;; Registers used:
  2260 ;;		wreg, status,2, status,0
  2261 ;; Tracked objects:
  2262 ;;		On entry : 0/0
  2263 ;;		On exit  : 0/0
  2264 ;;		Unchanged: 0/0
  2265 ;; Data sizes:     COMMON   BANK0   BANK1   BANK2
  2266 ;;      Params:         2       0       0       0
  2267 ;;      Locals:         0       0       0       0
  2268 ;;      Temps:          0       0       0       0
  2269 ;;      Totals:         2       0       0       0
  2270 ;;Total ram usage:        2 bytes
  2271 ;; Hardware stack levels used:    1
  2272 ;; Hardware stack levels required when called:    2
  2273 ;; This function calls:
  2274 ;;		Nothing
  2275 ;; This function is called by:
  2276 ;;		_usageCounterService
  2277 ;;		_displayUsage
  2278 ;; This function uses a non-reentrant model
  2279 ;;
  2280                           
  2281                           
  2282                           ;psect for function _timerDelay
  2283  055D                     _timerDelay:	
  2284                           
  2285                           ;timer.c: 159: delayTimer = duration;
  2286                           
  2287                           ;incstack = 0
  2288                           ; Regs used in _timerDelay: [wreg+status,2+status,0]
  2289  055D  0875               	movf	timerDelay@duration+1,w
  2290  055E  0020               	movlb	0	; select bank0
  2291  055F  00BA               	movwf	_delayTimer+1
  2292  0560  0874               	movf	timerDelay@duration,w
  2293  0561  00B9               	movwf	_delayTimer
  2294  0562                     l1251:	
  2295                           ;timer.c: 161: {
  2296                           ;timer.c: 162: continue;
  2297                           
  2298                           ;timer.c: 160: while ( delayTimer )
  2299                           
  2300  0562  0839               	movf	_delayTimer,w
  2301  0563  043A               	iorwf	_delayTimer+1,w
  2302  0564  1903               	btfsc	3,2
  2303  0565  0008               	return
  2304  0566  2D62               	goto	l1251
  2305  0567                     __end_of_timerDelay:	
  2306                           
  2307                           	psect	text4
  2308  0425                     __ptext4:	
  2309 ;; *************** function ___awmod *****************
  2310 ;; Defined at:
  2311 ;;		line 6 in file "C:\Program Files (x86)\Microchip\xc8\v1.34\sources\common\awmod.c"
  2312 ;; Parameters:    Size  Location     Type
  2313 ;;  divisor         2    0[BANK0 ] int 
  2314 ;;  dividend        2    2[BANK0 ] int 
  2315 ;; Auto vars:     Size  Location     Type
  2316 ;;  sign            1    5[BANK0 ] unsigned char 
  2317 ;;  counter         1    4[BANK0 ] unsigned char 
  2318 ;; Return value:  Size  Location     Type
  2319 ;;                  2    0[BANK0 ] int 
  2320 ;; Registers used:
  2321 ;;		wreg, status,2, status,0
  2322 ;; Tracked objects:
  2323 ;;		On entry : 0/0
  2324 ;;		On exit  : 0/0
  2325 ;;		Unchanged: 0/0
  2326 ;; Data sizes:     COMMON   BANK0   BANK1   BANK2
  2327 ;;      Params:         0       4       0       0
  2328 ;;      Locals:         0       2       0       0
  2329 ;;      Temps:          1       0       0       0
  2330 ;;      Totals:         1       6       0       0
  2331 ;;Total ram usage:        7 bytes
  2332 ;; Hardware stack levels used:    1
  2333 ;; Hardware stack levels required when called:    2
  2334 ;; This function calls:
  2335 ;;		Nothing
  2336 ;; This function is called by:
  2337 ;;		_usageCounterService
  2338 ;; This function uses a non-reentrant model
  2339 ;;
  2340                           
  2341                           
  2342                           ;psect for function ___awmod
  2343  0425                     ___awmod:	
  2344                           
  2345                           ;incstack = 0
  2346                           ; Regs used in ___awmod: [wreg+status,2+status,0]
  2347  0425  0020               	movlb	0	; select bank0
  2348  0426  01A5               	clrf	___awmod@sign
  2349  0427  1FA3               	btfss	___awmod@dividend+1,7
  2350  0428  2C30               	goto	l1659
  2351  0429  09A2               	comf	___awmod@dividend,f
  2352  042A  09A3               	comf	___awmod@dividend+1,f
  2353  042B  0AA2               	incf	___awmod@dividend,f
  2354  042C  1903               	skipnz
  2355  042D  0AA3               	incf	___awmod@dividend+1,f
  2356  042E  01A5               	clrf	___awmod@sign
  2357  042F  0AA5               	incf	___awmod@sign,f
  2358  0430                     l1659:	
  2359  0430  1FA1               	btfss	___awmod@divisor+1,7
  2360  0431  2C37               	goto	l1663
  2361  0432  09A0               	comf	___awmod@divisor,f
  2362  0433  09A1               	comf	___awmod@divisor+1,f
  2363  0434  0AA0               	incf	___awmod@divisor,f
  2364  0435  1903               	skipnz
  2365  0436  0AA1               	incf	___awmod@divisor+1,f
  2366  0437                     l1663:	
  2367  0437  0820               	movf	___awmod@divisor,w
  2368  0438  0421               	iorwf	___awmod@divisor+1,w
  2369  0439  1903               	btfsc	3,2
  2370  043A  2C5E               	goto	l1681
  2371  043B  01A4               	clrf	___awmod@counter
  2372  043C  0AA4               	incf	___awmod@counter,f
  2373  043D                     l1671:	
  2374  043D  1BA1               	btfsc	___awmod@divisor+1,7
  2375  043E  2C49               	goto	l1673
  2376  043F  3001               	movlw	1
  2377  0440                     u1245:	
  2378  0440  35A0               	lslf	___awmod@divisor,f
  2379  0441  0DA1               	rlf	___awmod@divisor+1,f
  2380  0442  0B89               	decfsz	9,f
  2381  0443  2C40               	goto	u1245
  2382  0444  3001               	movlw	1
  2383  0445  00F4               	movwf	??___awmod
  2384  0446  0874               	movf	??___awmod,w
  2385  0447  07A4               	addwf	___awmod@counter,f
  2386  0448  2C3D               	goto	l1671
  2387  0449                     l1673:	
  2388  0449  0821               	movf	___awmod@divisor+1,w
  2389  044A  0223               	subwf	___awmod@dividend+1,w
  2390  044B  1D03               	skipz
  2391  044C  2C4F               	goto	u1265
  2392  044D  0820               	movf	___awmod@divisor,w
  2393  044E  0222               	subwf	___awmod@dividend,w
  2394  044F                     u1265:	
  2395  044F  1C03               	skipc
  2396  0450  2C55               	goto	l1677
  2397  0451  0820               	movf	___awmod@divisor,w
  2398  0452  02A2               	subwf	___awmod@dividend,f
  2399  0453  0821               	movf	___awmod@divisor+1,w
  2400  0454  3BA3               	subwfb	___awmod@dividend+1,f
  2401  0455                     l1677:	
  2402  0455  3001               	movlw	1
  2403  0456                     u1275:	
  2404  0456  36A1               	lsrf	___awmod@divisor+1,f
  2405  0457  0CA0               	rrf	___awmod@divisor,f
  2406  0458  0B89               	decfsz	9,f
  2407  0459  2C56               	goto	u1275
  2408  045A  3001               	movlw	1
  2409  045B  02A4               	subwf	___awmod@counter,f
  2410  045C  1D03               	btfss	3,2
  2411  045D  2C49               	goto	l1673
  2412  045E                     l1681:	
  2413  045E  0825               	movf	___awmod@sign,w
  2414  045F  1903               	btfsc	3,2
  2415  0460  2C66               	goto	l1685
  2416  0461  09A2               	comf	___awmod@dividend,f
  2417  0462  09A3               	comf	___awmod@dividend+1,f
  2418  0463  0AA2               	incf	___awmod@dividend,f
  2419  0464  1903               	skipnz
  2420  0465  0AA3               	incf	___awmod@dividend+1,f
  2421  0466                     l1685:	
  2422  0466  0823               	movf	___awmod@dividend+1,w
  2423  0467  00A1               	movwf	?___awmod+1
  2424  0468  0822               	movf	___awmod@dividend,w
  2425  0469  00A0               	movwf	?___awmod
  2426  046A  0008               	return
  2427  046B                     __end_of___awmod:	
  2428                           
  2429                           	psect	text5
  2430  03D3                     __ptext5:	
  2431 ;; *************** function ___awdiv *****************
  2432 ;; Defined at:
  2433 ;;		line 6 in file "C:\Program Files (x86)\Microchip\xc8\v1.34\sources\common\awdiv.c"
  2434 ;; Parameters:    Size  Location     Type
  2435 ;;  divisor         2    6[BANK0 ] int 
  2436 ;;  dividend        2    8[BANK0 ] int 
  2437 ;; Auto vars:     Size  Location     Type
  2438 ;;  quotient        2   12[BANK0 ] int 
  2439 ;;  sign            1   11[BANK0 ] unsigned char 
  2440 ;;  counter         1   10[BANK0 ] unsigned char 
  2441 ;; Return value:  Size  Location     Type
  2442 ;;                  2    6[BANK0 ] int 
  2443 ;; Registers used:
  2444 ;;		wreg, status,2, status,0
  2445 ;; Tracked objects:
  2446 ;;		On entry : 0/0
  2447 ;;		On exit  : 0/0
  2448 ;;		Unchanged: 0/0
  2449 ;; Data sizes:     COMMON   BANK0   BANK1   BANK2
  2450 ;;      Params:         0       4       0       0
  2451 ;;      Locals:         0       4       0       0
  2452 ;;      Temps:          1       0       0       0
  2453 ;;      Totals:         1       8       0       0
  2454 ;;Total ram usage:        9 bytes
  2455 ;; Hardware stack levels used:    1
  2456 ;; Hardware stack levels required when called:    2
  2457 ;; This function calls:
  2458 ;;		Nothing
  2459 ;; This function is called by:
  2460 ;;		_usageCounterService
  2461 ;;		_displayUsage
  2462 ;; This function uses a non-reentrant model
  2463 ;;
  2464                           
  2465                           
  2466                           ;psect for function ___awdiv
  2467  03D3                     ___awdiv:	
  2468                           
  2469                           ;incstack = 0
  2470                           ; Regs used in ___awdiv: [wreg+status,2+status,0]
  2471  03D3  0020               	movlb	0	; select bank0
  2472  03D4  01AB               	clrf	___awdiv@sign
  2473  03D5  1FA7               	btfss	___awdiv@divisor+1,7
  2474  03D6  2BDE               	goto	l1261
  2475  03D7  09A6               	comf	___awdiv@divisor,f
  2476  03D8  09A7               	comf	___awdiv@divisor+1,f
  2477  03D9  0AA6               	incf	___awdiv@divisor,f
  2478  03DA  1903               	skipnz
  2479  03DB  0AA7               	incf	___awdiv@divisor+1,f
  2480  03DC  01AB               	clrf	___awdiv@sign
  2481  03DD  0AAB               	incf	___awdiv@sign,f
  2482  03DE                     l1261:	
  2483  03DE  1FA9               	btfss	___awdiv@dividend+1,7
  2484  03DF  2BE9               	goto	l1267
  2485  03E0  09A8               	comf	___awdiv@dividend,f
  2486  03E1  09A9               	comf	___awdiv@dividend+1,f
  2487  03E2  0AA8               	incf	___awdiv@dividend,f
  2488  03E3  1903               	skipnz
  2489  03E4  0AA9               	incf	___awdiv@dividend+1,f
  2490  03E5  3001               	movlw	1
  2491  03E6  00F5               	movwf	??___awdiv
  2492  03E7  0875               	movf	??___awdiv,w
  2493  03E8  06AB               	xorwf	___awdiv@sign,f
  2494  03E9                     l1267:	
  2495  03E9  01AC               	clrf	___awdiv@quotient
  2496  03EA  01AD               	clrf	___awdiv@quotient+1
  2497  03EB  0826               	movf	___awdiv@divisor,w
  2498  03EC  0427               	iorwf	___awdiv@divisor+1,w
  2499  03ED  1903               	btfsc	3,2
  2500  03EE  2C18               	goto	l1289
  2501  03EF  01AA               	clrf	___awdiv@counter
  2502  03F0  0AAA               	incf	___awdiv@counter,f
  2503  03F1                     l1277:	
  2504  03F1  1BA7               	btfsc	___awdiv@divisor+1,7
  2505  03F2  2BFD               	goto	l1279
  2506  03F3  3001               	movlw	1
  2507  03F4                     u635:	
  2508  03F4  35A6               	lslf	___awdiv@divisor,f
  2509  03F5  0DA7               	rlf	___awdiv@divisor+1,f
  2510  03F6  0B89               	decfsz	9,f
  2511  03F7  2BF4               	goto	u635
  2512  03F8  3001               	movlw	1
  2513  03F9  00F5               	movwf	??___awdiv
  2514  03FA  0875               	movf	??___awdiv,w
  2515  03FB  07AA               	addwf	___awdiv@counter,f
  2516  03FC  2BF1               	goto	l1277
  2517  03FD                     l1279:	
  2518  03FD  3001               	movlw	1
  2519  03FE                     u655:	
  2520  03FE  35AC               	lslf	___awdiv@quotient,f
  2521  03FF  0DAD               	rlf	___awdiv@quotient+1,f
  2522  0400  0B89               	decfsz	9,f
  2523  0401  2BFE               	goto	u655
  2524  0402  0827               	movf	___awdiv@divisor+1,w
  2525  0403  0229               	subwf	___awdiv@dividend+1,w
  2526  0404  1D03               	skipz
  2527  0405  2C08               	goto	u665
  2528  0406  0826               	movf	___awdiv@divisor,w
  2529  0407  0228               	subwf	___awdiv@dividend,w
  2530  0408                     u665:	
  2531  0408  1C03               	skipc
  2532  0409  2C0F               	goto	l1285
  2533  040A  0826               	movf	___awdiv@divisor,w
  2534  040B  02A8               	subwf	___awdiv@dividend,f
  2535  040C  0827               	movf	___awdiv@divisor+1,w
  2536  040D  3BA9               	subwfb	___awdiv@dividend+1,f
  2537  040E  142C               	bsf	___awdiv@quotient,0
  2538  040F                     l1285:	
  2539  040F  3001               	movlw	1
  2540  0410                     u675:	
  2541  0410  36A7               	lsrf	___awdiv@divisor+1,f
  2542  0411  0CA6               	rrf	___awdiv@divisor,f
  2543  0412  0B89               	decfsz	9,f
  2544  0413  2C10               	goto	u675
  2545  0414  3001               	movlw	1
  2546  0415  02AA               	subwf	___awdiv@counter,f
  2547  0416  1D03               	btfss	3,2
  2548  0417  2BFD               	goto	l1279
  2549  0418                     l1289:	
  2550  0418  082B               	movf	___awdiv@sign,w
  2551  0419  1903               	btfsc	3,2
  2552  041A  2C20               	goto	l1293
  2553  041B  09AC               	comf	___awdiv@quotient,f
  2554  041C  09AD               	comf	___awdiv@quotient+1,f
  2555  041D  0AAC               	incf	___awdiv@quotient,f
  2556  041E  1903               	skipnz
  2557  041F  0AAD               	incf	___awdiv@quotient+1,f
  2558  0420                     l1293:	
  2559  0420  082D               	movf	___awdiv@quotient+1,w
  2560  0421  00A7               	movwf	?___awdiv+1
  2561  0422  082C               	movf	___awdiv@quotient,w
  2562  0423  00A6               	movwf	?___awdiv
  2563  0424  0008               	return
  2564  0425                     __end_of___awdiv:	
  2565                           
  2566                           	psect	text6
  2567  0551                     __ptext6:	
  2568 ;; *************** function _initialise *****************
  2569 ;; Defined at:
  2570 ;;		line 56 in file "source/main.c"
  2571 ;; Parameters:    Size  Location     Type
  2572 ;;		None
  2573 ;; Auto vars:     Size  Location     Type
  2574 ;;		None
  2575 ;; Return value:  Size  Location     Type
  2576 ;;		None               void
  2577 ;; Registers used:
  2578 ;;		wreg, fsr1l, fsr1h, status,2, status,0, pclath, cstack
  2579 ;; Tracked objects:
  2580 ;;		On entry : 0/0
  2581 ;;		On exit  : 0/0
  2582 ;;		Unchanged: 0/0
  2583 ;; Data sizes:     COMMON   BANK0   BANK1   BANK2
  2584 ;;      Params:         0       0       0       0
  2585 ;;      Locals:         0       0       0       0
  2586 ;;      Temps:          0       0       0       0
  2587 ;;      Totals:         0       0       0       0
  2588 ;;Total ram usage:        0 bytes
  2589 ;; Hardware stack levels used:    1
  2590 ;; Hardware stack levels required when called:    5
  2591 ;; This function calls:
  2592 ;;		_hardwareInit
  2593 ;;		_interruptsInit
  2594 ;;		_timerInit
  2595 ;;		_usageCounterInit
  2596 ;; This function is called by:
  2597 ;;		_main
  2598 ;; This function uses a non-reentrant model
  2599 ;;
  2600                           
  2601                           
  2602                           ;psect for function _initialise
  2603  0551                     _initialise:	
  2604                           
  2605                           ;main.c: 58: hardwareInit();
  2606                           
  2607                           ;incstack = 0
  2608                           ; Regs used in _initialise: [wreg+fsr1l+fsr1h+status,2+status,0+pclath+cstack]
  2609  0551  3184  24A9  3185   	fcall	_hardwareInit
  2610                           
  2611                           ;main.c: 59: timerInit();
  2612  0554  3185  2515  3185   	fcall	_timerInit
  2613                           
  2614                           ;main.c: 64: usageCounterInit();
  2615  0557  3184  24F3  3185   	fcall	_usageCounterInit
  2616                           
  2617                           ;main.c: 65: interruptsInit();
  2618  055A  3185  2574         	fcall	_interruptsInit
  2619  055C  0008               	return
  2620  055D                     __end_of_initialise:	
  2621                           
  2622                           	psect	text7
  2623  04F3                     __ptext7:	
  2624 ;; *************** function _usageCounterInit *****************
  2625 ;; Defined at:
  2626 ;;		line 95 in file "source/usagecounter.c"
  2627 ;; Parameters:    Size  Location     Type
  2628 ;;		None
  2629 ;; Auto vars:     Size  Location     Type
  2630 ;;		None
  2631 ;; Return value:  Size  Location     Type
  2632 ;;		None               void
  2633 ;; Registers used:
  2634 ;;		wreg, fsr1l, fsr1h, status,2, status,0, pclath, cstack
  2635 ;; Tracked objects:
  2636 ;;		On entry : 0/0
  2637 ;;		On exit  : 0/0
  2638 ;;		Unchanged: 0/0
  2639 ;; Data sizes:     COMMON   BANK0   BANK1   BANK2
  2640 ;;      Params:         0       0       0       0
  2641 ;;      Locals:         0       0       0       0
  2642 ;;      Temps:          0       1       0       0
  2643 ;;      Totals:         0       1       0       0
  2644 ;;Total ram usage:        1 bytes
  2645 ;; Hardware stack levels used:    1
  2646 ;; Hardware stack levels required when called:    4
  2647 ;; This function calls:
  2648 ;;		_initTimer6
  2649 ;;		_timerGet
  2650 ;;		_timerSet
  2651 ;; This function is called by:
  2652 ;;		_initialise
  2653 ;; This function uses a non-reentrant model
  2654 ;;
  2655                           
  2656                           
  2657                           ;psect for function _usageCounterInit
  2658  04F3                     _usageCounterInit:	
  2659                           
  2660                           ;usagecounter.c: 97: initTimer6();
  2661                           
  2662                           ;incstack = 0
  2663                           ; Regs used in _usageCounterInit: [wreg+fsr1l+fsr1h+status,2+status,0+pclath+cstack]
  2664  04F3  3185  2505  3184   	fcall	_initTimer6
  2665                           
  2666                           ;usagecounter.c: 98: usageCounterTimer = timerGet ();
  2667  04F6  3185  2534  3184   	fcall	_timerGet
  2668  04F9  0020               	movlb	0	; select bank0
  2669  04FA  00A1               	movwf	??_usageCounterInit
  2670  04FB  0821               	movf	??_usageCounterInit,w
  2671  04FC  00C9               	movwf	_usageCounterTimer
  2672                           
  2673                           ;usagecounter.c: 99: timerSet( usageCounterTimer, 15000 );
  2674  04FD  3098               	movlw	152
  2675  04FE  00F4               	movwf	timerSet@duration
  2676  04FF  303A               	movlw	58
  2677  0500  00F5               	movwf	timerSet@duration+1
  2678  0501  0849               	movf	_usageCounterTimer,w
  2679  0502  3185  2525         	fcall	_timerSet
  2680  0504  0008               	return
  2681  0505                     __end_of_usageCounterInit:	
  2682                           
  2683                           	psect	text8
  2684  0525                     __ptext8:	
  2685 ;; *************** function _timerSet *****************
  2686 ;; Defined at:
  2687 ;;		line 107 in file "source/timer.c"
  2688 ;; Parameters:    Size  Location     Type
  2689 ;;  index           1    wreg     unsigned char 
  2690 ;;  duration        2    4[COMMON] unsigned int 
  2691 ;; Auto vars:     Size  Location     Type
  2692 ;;  index           1    0[BANK0 ] unsigned char 
  2693 ;; Return value:  Size  Location     Type
  2694 ;;		None               void
  2695 ;; Registers used:
  2696 ;;		wreg, fsr1l, fsr1h, status,2, status,0
  2697 ;; Tracked objects:
  2698 ;;		On entry : 0/0
  2699 ;;		On exit  : 0/0
  2700 ;;		Unchanged: 0/0
  2701 ;; Data sizes:     COMMON   BANK0   BANK1   BANK2
  2702 ;;      Params:         2       0       0       0
  2703 ;;      Locals:         0       1       0       0
  2704 ;;      Temps:          0       0       0       0
  2705 ;;      Totals:         2       1       0       0
  2706 ;;Total ram usage:        3 bytes
  2707 ;; Hardware stack levels used:    1
  2708 ;; Hardware stack levels required when called:    2
  2709 ;; This function calls:
  2710 ;;		Nothing
  2711 ;; This function is called by:
  2712 ;;		_usageCounterInit
  2713 ;;		_usageCounterService
  2714 ;; This function uses a non-reentrant model
  2715 ;;
  2716                           
  2717                           
  2718                           ;psect for function _timerSet
  2719  0525                     _timerSet:	
  2720                           
  2721                           ;incstack = 0
  2722                           ; Regs used in _timerSet: [wreg+fsr1l+fsr1h+status,2+status,0]
  2723                           ;timerSet@index stored from wreg
  2724  0525  0020               	movlb	0	; select bank0
  2725  0526  00A0               	movwf	timerSet@index
  2726                           
  2727                           ;timer.c: 109: if ( index < numTimers )
  2728  0527  0877               	movf	_numTimers,w
  2729  0528  0220               	subwf	timerSet@index,w
  2730  0529  1803               	skipnc
  2731  052A  0008               	return
  2732                           
  2733                           ;timer.c: 110: {
  2734                           ;timer.c: 111: timers[index] = duration;
  2735  052B  3520               	lslf	timerSet@index,w
  2736  052C  3EA0               	addlw	(low (_timers| 0))& (0+255)
  2737  052D  0086               	movwf	6
  2738  052E  0187               	clrf	7
  2739  052F  0874               	movf	timerSet@duration,w
  2740  0530  3FC0               	movwi [0]fsr1
  2741  0531  0875               	movf	timerSet@duration+1,w
  2742  0532  3FC1               	movwi [1]fsr1
  2743  0533  0008               	return
  2744  0534                     __end_of_timerSet:	
  2745                           
  2746                           	psect	text9
  2747  0534                     __ptext9:	
  2748 ;; *************** function _timerGet *****************
  2749 ;; Defined at:
  2750 ;;		line 88 in file "source/timer.c"
  2751 ;; Parameters:    Size  Location     Type
  2752 ;;		None
  2753 ;; Auto vars:     Size  Location     Type
  2754 ;;  result          1    0[BANK0 ] unsigned char 
  2755 ;; Return value:  Size  Location     Type
  2756 ;;                  1    wreg      unsigned char 
  2757 ;; Registers used:
  2758 ;;		wreg, fsr1l, fsr1h, status,2, status,0, pclath, cstack
  2759 ;; Tracked objects:
  2760 ;;		On entry : 0/0
  2761 ;;		On exit  : 0/0
  2762 ;;		Unchanged: 0/0
  2763 ;; Data sizes:     COMMON   BANK0   BANK1   BANK2
  2764 ;;      Params:         0       0       0       0
  2765 ;;      Locals:         0       1       0       0
  2766 ;;      Temps:          1       0       0       0
  2767 ;;      Totals:         1       1       0       0
  2768 ;;Total ram usage:        2 bytes
  2769 ;; Hardware stack levels used:    1
  2770 ;; Hardware stack levels required when called:    3
  2771 ;; This function calls:
  2772 ;;		_timerLock
  2773 ;; This function is called by:
  2774 ;;		_usageCounterInit
  2775 ;; This function uses a non-reentrant model
  2776 ;;
  2777                           
  2778                           
  2779                           ;psect for function _timerGet
  2780  0534                     _timerGet:	
  2781                           
  2782                           ;timer.c: 90: TTimerIndex result;
  2783                           ;timer.c: 92: result = numTimers;
  2784                           
  2785                           ;incstack = 0
  2786                           ; Regs used in _timerGet: [wreg+fsr1l+fsr1h+status,2+status,0+pclath+cstack]
  2787  0534  0877               	movf	_numTimers,w
  2788  0535  00F5               	movwf	??_timerGet
  2789  0536  0875               	movf	??_timerGet,w
  2790  0537  0020               	movlb	0	; select bank0
  2791  0538  00A0               	movwf	timerGet@result
  2792                           
  2793                           ;timer.c: 93: numTimers++;
  2794  0539  3001               	movlw	1
  2795  053A  00F5               	movwf	??_timerGet
  2796  053B  0875               	movf	??_timerGet,w
  2797  053C  07F7               	addwf	_numTimers,f
  2798                           
  2799                           ;timer.c: 94: timerLock( result );
  2800  053D  0820               	movf	timerGet@result,w
  2801  053E  3185  2543         	fcall	_timerLock
  2802                           
  2803                           ;timer.c: 95: return ( result );
  2804  0540  0020               	movlb	0	; select bank0
  2805  0541  0820               	movf	timerGet@result,w
  2806  0542  0008               	return
  2807  0543                     __end_of_timerGet:	
  2808                           
  2809                           	psect	text10
  2810  0543                     __ptext10:	
  2811 ;; *************** function _timerLock *****************
  2812 ;; Defined at:
  2813 ;;		line 141 in file "source/timer.c"
  2814 ;; Parameters:    Size  Location     Type
  2815 ;;  index           1    wreg     unsigned char 
  2816 ;; Auto vars:     Size  Location     Type
  2817 ;;  index           1    4[COMMON] unsigned char 
  2818 ;; Return value:  Size  Location     Type
  2819 ;;		None               void
  2820 ;; Registers used:
  2821 ;;		wreg, fsr1l, fsr1h, status,2, status,0
  2822 ;; Tracked objects:
  2823 ;;		On entry : 0/0
  2824 ;;		On exit  : 0/0
  2825 ;;		Unchanged: 0/0
  2826 ;; Data sizes:     COMMON   BANK0   BANK1   BANK2
  2827 ;;      Params:         0       0       0       0
  2828 ;;      Locals:         1       0       0       0
  2829 ;;      Temps:          0       0       0       0
  2830 ;;      Totals:         1       0       0       0
  2831 ;;Total ram usage:        1 bytes
  2832 ;; Hardware stack levels used:    1
  2833 ;; Hardware stack levels required when called:    2
  2834 ;; This function calls:
  2835 ;;		Nothing
  2836 ;; This function is called by:
  2837 ;;		_timerGet
  2838 ;; This function uses a non-reentrant model
  2839 ;;
  2840                           
  2841                           
  2842                           ;psect for function _timerLock
  2843  0543                     _timerLock:	
  2844                           
  2845                           ;incstack = 0
  2846                           ; Regs used in _timerLock: [wreg+fsr1l+fsr1h+status,2+status,0]
  2847                           ;timerLock@index stored from wreg
  2848  0543  00F4               	movwf	timerLock@index
  2849                           
  2850                           ;timer.c: 143: if ( index < numTimers )
  2851  0544  0877               	movf	_numTimers,w
  2852  0545  0274               	subwf	timerLock@index,w
  2853  0546  1803               	skipnc
  2854  0547  0008               	return
  2855                           
  2856                           ;timer.c: 144: {
  2857                           ;timer.c: 145: timers[index] = 0xFFFF;
  2858  0548  3574               	lslf	timerLock@index,w
  2859  0549  3EA0               	addlw	(low (_timers| 0))& (0+255)
  2860  054A  0086               	movwf	6
  2861  054B  0187               	clrf	7
  2862  054C  30FF               	movlw	255
  2863  054D  3FC0               	movwi [0]fsr1
  2864  054E  30FF               	movlw	255
  2865  054F  3FC1               	movwi [1]fsr1
  2866  0550  0008               	return
  2867  0551                     __end_of_timerLock:	
  2868                           
  2869                           	psect	text11
  2870  0505                     __ptext11:	
  2871 ;; *************** function _initTimer6 *****************
  2872 ;; Defined at:
  2873 ;;		line 52 in file "source/usagecounter.c"
  2874 ;; Parameters:    Size  Location     Type
  2875 ;;		None
  2876 ;; Auto vars:     Size  Location     Type
  2877 ;;		None
  2878 ;; Return value:  Size  Location     Type
  2879 ;;		None               void
  2880 ;; Registers used:
  2881 ;;		wreg, status,2, status,0
  2882 ;; Tracked objects:
  2883 ;;		On entry : 0/0
  2884 ;;		On exit  : 0/0
  2885 ;;		Unchanged: 0/0
  2886 ;; Data sizes:     COMMON   BANK0   BANK1   BANK2
  2887 ;;      Params:         0       0       0       0
  2888 ;;      Locals:         0       0       0       0
  2889 ;;      Temps:          0       0       0       0
  2890 ;;      Totals:         0       0       0       0
  2891 ;;Total ram usage:        0 bytes
  2892 ;; Hardware stack levels used:    1
  2893 ;; Hardware stack levels required when called:    2
  2894 ;; This function calls:
  2895 ;;		Nothing
  2896 ;; This function is called by:
  2897 ;;		_usageCounterInit
  2898 ;; This function uses a non-reentrant model
  2899 ;;
  2900                           
  2901                           
  2902                           ;psect for function _initTimer6
  2903  0505                     _initTimer6:	
  2904                           
  2905                           ;usagecounter.c: 54: T6CONbits.T6CKPS = 0b01;
  2906                           
  2907                           ;incstack = 0
  2908                           ; Regs used in _initTimer6: [wreg+status,2+status,0]
  2909  0505  0028               	movlb	8	; select bank8
  2910  0506  081E               	movf	30,w	;volatile
  2911  0507  39FC               	andlw	-4
  2912  0508  3801               	iorlw	1
  2913  0509  009E               	movwf	30	;volatile
  2914                           
  2915                           ;usagecounter.c: 55: T6CONbits.T6OUTPS = 0b1111;
  2916  050A  3078               	movlw	120
  2917  050B  049E               	iorwf	30,f	;volatile
  2918                           
  2919                           ;usagecounter.c: 56: PR6bits.PR6 = 249;
  2920  050C  30F9               	movlw	249
  2921  050D  009D               	movwf	29	;volatile
  2922                           
  2923                           ;usagecounter.c: 57: TMR6bits.TMR6 = 0x00;
  2924  050E  019C               	clrf	28	;volatile
  2925                           
  2926                           ;usagecounter.c: 58: T6CONbits.TMR6ON = 0b1;
  2927  050F  151E               	bsf	30,2	;volatile
  2928                           
  2929                           ;usagecounter.c: 59: PIR3bits.TMR6IF=0;
  2930  0510  0020               	movlb	0	; select bank0
  2931  0511  1193               	bcf	19,3	;volatile
  2932                           
  2933                           ;usagecounter.c: 60: PIE3bits.TMR6IE = 1;
  2934  0512  0021               	movlb	1	; select bank1
  2935  0513  1593               	bsf	19,3	;volatile
  2936  0514  0008               	return
  2937  0515                     __end_of_initTimer6:	
  2938                           
  2939                           	psect	text12
  2940  0515                     __ptext12:	
  2941 ;; *************** function _timerInit *****************
  2942 ;; Defined at:
  2943 ;;		line 23 in file "source/timer.c"
  2944 ;; Parameters:    Size  Location     Type
  2945 ;;		None
  2946 ;; Auto vars:     Size  Location     Type
  2947 ;;		None
  2948 ;; Return value:  Size  Location     Type
  2949 ;;		None               void
  2950 ;; Registers used:
  2951 ;;		wreg, status,2
  2952 ;; Tracked objects:
  2953 ;;		On entry : 0/0
  2954 ;;		On exit  : 0/0
  2955 ;;		Unchanged: 0/0
  2956 ;; Data sizes:     COMMON   BANK0   BANK1   BANK2
  2957 ;;      Params:         0       0       0       0
  2958 ;;      Locals:         0       0       0       0
  2959 ;;      Temps:          0       0       0       0
  2960 ;;      Totals:         0       0       0       0
  2961 ;;Total ram usage:        0 bytes
  2962 ;; Hardware stack levels used:    1
  2963 ;; Hardware stack levels required when called:    2
  2964 ;; This function calls:
  2965 ;;		Nothing
  2966 ;; This function is called by:
  2967 ;;		_initialise
  2968 ;; This function uses a non-reentrant model
  2969 ;;
  2970                           
  2971                           
  2972                           ;psect for function _timerInit
  2973  0515                     _timerInit:	
  2974                           
  2975                           ;timer.c: 25: numTimers = 0;
  2976                           
  2977                           ;incstack = 0
  2978                           ; Regs used in _timerInit: [wreg+status,2]
  2979  0515  01F7               	clrf	_numTimers
  2980                           
  2981                           ;timer.c: 27: T1GCONbits.TMR1GE = 0;
  2982  0516  0020               	movlb	0	; select bank0
  2983  0517  1399               	bcf	25,7	;volatile
  2984                           
  2985                           ;timer.c: 29: T1CONbits.TMR1CS1 = 0;
  2986  0518  1398               	bcf	24,7	;volatile
  2987                           
  2988                           ;timer.c: 30: T1CONbits.TMR1CS0 = 1;
  2989  0519  1718               	bsf	24,6	;volatile
  2990                           
  2991                           ;timer.c: 31: T1CONbits.T1CKPS1 = 0;
  2992  051A  1298               	bcf	24,5	;volatile
  2993                           
  2994                           ;timer.c: 32: T1CONbits.T1CKPS0 = 0;
  2995  051B  1218               	bcf	24,4	;volatile
  2996                           
  2997                           ;timer.c: 34: TMR1H = (BYTE) ( 32000 >> 8 );
  2998  051C  307D               	movlw	125
  2999  051D  0097               	movwf	23	;volatile
  3000                           
  3001                           ;timer.c: 35: TMR1L = (BYTE) ( 32000 & 0xff );
  3002  051E  0196               	clrf	22	;volatile
  3003                           
  3004                           ;timer.c: 37: PIE1bits.TMR1IE = 1;
  3005  051F  0021               	movlb	1	; select bank1
  3006  0520  1411               	bsf	17,0	;volatile
  3007                           
  3008                           ;timer.c: 39: INTCONbits.PEIE = 1;
  3009  0521  170B               	bsf	11,6	;volatile
  3010                           
  3011                           ;timer.c: 40: T1CONbits.TMR1ON = 1;
  3012  0522  0020               	movlb	0	; select bank0
  3013  0523  1418               	bsf	24,0	;volatile
  3014  0524  0008               	return
  3015  0525                     __end_of_timerInit:	
  3016                           
  3017                           	psect	text13
  3018  0574                     __ptext13:	
  3019 ;; *************** function _interruptsInit *****************
  3020 ;; Defined at:
  3021 ;;		line 123 in file "source/main.c"
  3022 ;; Parameters:    Size  Location     Type
  3023 ;;		None
  3024 ;; Auto vars:     Size  Location     Type
  3025 ;;		None
  3026 ;; Return value:  Size  Location     Type
  3027 ;;		None               void
  3028 ;; Registers used:
  3029 ;;		status,2, status,0, pclath, cstack
  3030 ;; Tracked objects:
  3031 ;;		On entry : 0/0
  3032 ;;		On exit  : 0/0
  3033 ;;		Unchanged: 0/0
  3034 ;; Data sizes:     COMMON   BANK0   BANK1   BANK2
  3035 ;;      Params:         0       0       0       0
  3036 ;;      Locals:         0       0       0       0
  3037 ;;      Temps:          0       0       0       0
  3038 ;;      Totals:         0       0       0       0
  3039 ;;Total ram usage:        0 bytes
  3040 ;; Hardware stack levels used:    1
  3041 ;; Hardware stack levels required when called:    3
  3042 ;; This function calls:
  3043 ;;		_initInterrupt
  3044 ;; This function is called by:
  3045 ;;		_initialise
  3046 ;; This function uses a non-reentrant model
  3047 ;;
  3048                           
  3049                           
  3050                           ;psect for function _interruptsInit
  3051  0574                     _interruptsInit:	
  3052                           
  3053                           ;main.c: 125: initInterrupt();
  3054                           
  3055                           ;incstack = 0
  3056                           ; Regs used in _interruptsInit: [status,2+status,0+pclath+cstack]
  3057  0574  3185  2577         	fcall	_initInterrupt
  3058  0576  0008               	return
  3059  0577                     __end_of_interruptsInit:	
  3060                           
  3061                           	psect	text14
  3062  0577                     __ptext14:	
  3063 ;; *************** function _initInterrupt *****************
  3064 ;; Defined at:
  3065 ;;		line 18 in file "source/interrupt.c"
  3066 ;; Parameters:    Size  Location     Type
  3067 ;;		None
  3068 ;; Auto vars:     Size  Location     Type
  3069 ;;		None
  3070 ;; Return value:  Size  Location     Type
  3071 ;;		None               void
  3072 ;; Registers used:
  3073 ;;		None
  3074 ;; Tracked objects:
  3075 ;;		On entry : 0/0
  3076 ;;		On exit  : 0/0
  3077 ;;		Unchanged: 0/0
  3078 ;; Data sizes:     COMMON   BANK0   BANK1   BANK2
  3079 ;;      Params:         0       0       0       0
  3080 ;;      Locals:         0       0       0       0
  3081 ;;      Temps:          0       0       0       0
  3082 ;;      Totals:         0       0       0       0
  3083 ;;Total ram usage:        0 bytes
  3084 ;; Hardware stack levels used:    1
  3085 ;; Hardware stack levels required when called:    2
  3086 ;; This function calls:
  3087 ;;		Nothing
  3088 ;; This function is called by:
  3089 ;;		_interruptsInit
  3090 ;; This function uses a non-reentrant model
  3091 ;;
  3092                           
  3093                           
  3094                           ;psect for function _initInterrupt
  3095  0577                     _initInterrupt:	
  3096                           
  3097                           ;interrupt.c: 20: INTCONbits.PEIE = 1;
  3098                           
  3099                           ;incstack = 0
  3100                           ; Regs used in _initInterrupt: []
  3101  0577  170B               	bsf	11,6	;volatile
  3102                           
  3103                           ;interrupt.c: 21: INTCONbits.GIE = 1;
  3104  0578  178B               	bsf	11,7	;volatile
  3105  0579  0008               	return
  3106  057A                     __end_of_initInterrupt:	
  3107                           
  3108                           	psect	text15
  3109  04A9                     __ptext15:	
  3110 ;; *************** function _hardwareInit *****************
  3111 ;; Defined at:
  3112 ;;		line 77 in file "source/main.c"
  3113 ;; Parameters:    Size  Location     Type
  3114 ;;		None
  3115 ;; Auto vars:     Size  Location     Type
  3116 ;;		None
  3117 ;; Return value:  Size  Location     Type
  3118 ;;		None               void
  3119 ;; Registers used:
  3120 ;;		wreg, status,2, status,0
  3121 ;; Tracked objects:
  3122 ;;		On entry : 0/0
  3123 ;;		On exit  : 0/0
  3124 ;;		Unchanged: 0/0
  3125 ;; Data sizes:     COMMON   BANK0   BANK1   BANK2
  3126 ;;      Params:         0       0       0       0
  3127 ;;      Locals:         0       0       0       0
  3128 ;;      Temps:          0       0       0       0
  3129 ;;      Totals:         0       0       0       0
  3130 ;;Total ram usage:        0 bytes
  3131 ;; Hardware stack levels used:    1
  3132 ;; Hardware stack levels required when called:    2
  3133 ;; This function calls:
  3134 ;;		Nothing
  3135 ;; This function is called by:
  3136 ;;		_initialise
  3137 ;; This function uses a non-reentrant model
  3138 ;;
  3139                           
  3140                           
  3141                           ;psect for function _hardwareInit
  3142  04A9                     _hardwareInit:	
  3143                           
  3144                           ;main.c: 79: OSCCONbits.SCS = 0;
  3145                           
  3146                           ;incstack = 0
  3147                           ; Regs used in _hardwareInit: [wreg+status,2+status,0]
  3148  04A9  30FC               	movlw	-4
  3149  04AA  0021               	movlb	1	; select bank1
  3150  04AB  0599               	andwf	25,f	;volatile
  3151                           
  3152                           ;main.c: 80: OSCCONbits.IRCF = 0xE;
  3153  04AC  0819               	movf	25,w	;volatile
  3154  04AD  3987               	andlw	-121
  3155  04AE  3870               	iorlw	112
  3156  04AF  0099               	movwf	25	;volatile
  3157                           
  3158                           ;main.c: 81: OSCCONbits.SPLLEN = 1;
  3159  04B0  1799               	bsf	25,7	;volatile
  3160                           
  3161                           ;main.c: 83: TRISBbits.TRISB6 = 0;
  3162  04B1  130D               	bcf	13,6	;volatile
  3163                           
  3164                           ;main.c: 84: LATBbits.LATB6 = 0;
  3165  04B2  0022               	movlb	2	; select bank2
  3166  04B3  130D               	bcf	13,6	;volatile
  3167                           
  3168                           ;main.c: 86: TRISBbits.TRISB7 = 0;
  3169  04B4  0021               	movlb	1	; select bank1
  3170  04B5  138D               	bcf	13,7	;volatile
  3171                           
  3172                           ;main.c: 87: LATBbits.LATB7 = 0;
  3173  04B6  0022               	movlb	2	; select bank2
  3174  04B7  138D               	bcf	13,7	;volatile
  3175                           
  3176                           ;main.c: 89: TRISBbits.TRISB5 = 0;
  3177  04B8  0021               	movlb	1	; select bank1
  3178  04B9  128D               	bcf	13,5	;volatile
  3179                           
  3180                           ;main.c: 90: LATBbits.LATB5 = 0;
  3181  04BA  0022               	movlb	2	; select bank2
  3182  04BB  128D               	bcf	13,5	;volatile
  3183                           
  3184                           ;main.c: 92: TRISBbits.TRISB4 = 0;
  3185  04BC  0021               	movlb	1	; select bank1
  3186  04BD  120D               	bcf	13,4	;volatile
  3187                           
  3188                           ;main.c: 93: ANSELBbits.ANSB4 = 1;
  3189  04BE  0023               	movlb	3	; select bank3
  3190  04BF  160D               	bsf	13,4	;volatile
  3191                           
  3192                           ;main.c: 94: LATBbits.LATB4 = 0;
  3193  04C0  0022               	movlb	2	; select bank2
  3194  04C1  120D               	bcf	13,4	;volatile
  3195                           
  3196                           ;main.c: 96: TRISAbits.TRISA5 = 1;
  3197  04C2  0021               	movlb	1	; select bank1
  3198  04C3  168C               	bsf	12,5	;volatile
  3199                           
  3200                           ;main.c: 98: TRISAbits.TRISA4 = 1;
  3201  04C4  160C               	bsf	12,4	;volatile
  3202                           
  3203                           ;main.c: 99: ANSELAbits.ANSA4 = 0;
  3204  04C5  0023               	movlb	3	; select bank3
  3205  04C6  120C               	bcf	12,4	;volatile
  3206                           
  3207                           ;main.c: 101: TRISAbits.TRISA2 = 1;
  3208  04C7  0021               	movlb	1	; select bank1
  3209  04C8  150C               	bsf	12,2	;volatile
  3210                           
  3211                           ;main.c: 102: ANSELAbits.ANSA2 = 0;
  3212  04C9  0023               	movlb	3	; select bank3
  3213  04CA  110C               	bcf	12,2	;volatile
  3214                           
  3215                           ;main.c: 104: TRISCbits.TRISC5 = 0;
  3216  04CB  0021               	movlb	1	; select bank1
  3217  04CC  128E               	bcf	14,5	;volatile
  3218                           
  3219                           ;main.c: 105: LATCbits.LATC5= 0;
  3220  04CD  0022               	movlb	2	; select bank2
  3221  04CE  128E               	bcf	14,5	;volatile
  3222                           
  3223                           ;main.c: 107: TRISCbits.TRISC4 = 0;
  3224  04CF  0021               	movlb	1	; select bank1
  3225  04D0  120E               	bcf	14,4	;volatile
  3226                           
  3227                           ;main.c: 108: LATCbits.LATC4 = 0;
  3228  04D1  0022               	movlb	2	; select bank2
  3229  04D2  120E               	bcf	14,4	;volatile
  3230                           
  3231                           ;main.c: 110: TRISCbits.TRISC7 = 1;
  3232  04D3  0021               	movlb	1	; select bank1
  3233  04D4  178E               	bsf	14,7	;volatile
  3234                           
  3235                           ;main.c: 111: ANSELCbits.ANSC7 = 1;
  3236  04D5  0023               	movlb	3	; select bank3
  3237  04D6  178E               	bsf	14,7	;volatile
  3238                           
  3239                           ;main.c: 113: TRISCbits.TRISC1 = 1;
  3240  04D7  0021               	movlb	1	; select bank1
  3241  04D8  148E               	bsf	14,1	;volatile
  3242                           
  3243                           ;main.c: 114: ANSELCbits.ANSC1 = 1;
  3244  04D9  0023               	movlb	3	; select bank3
  3245  04DA  148E               	bsf	14,1	;volatile
  3246  04DB  0008               	return
  3247  04DC                     __end_of_hardwareInit:	
  3248                           
  3249                           	psect	intentry
  3250  0004                     __pintentry:	
  3251 ;; *************** function _ISRCode *****************
  3252 ;; Defined at:
  3253 ;;		line 34 in file "source/interrupt.c"
  3254 ;; Parameters:    Size  Location     Type
  3255 ;;		None
  3256 ;; Auto vars:     Size  Location     Type
  3257 ;;		None
  3258 ;; Return value:  Size  Location     Type
  3259 ;;		None               void
  3260 ;; Registers used:
  3261 ;;		wreg, fsr1l, fsr1h, status,2, status,0, pclath, cstack
  3262 ;; Tracked objects:
  3263 ;;		On entry : 0/0
  3264 ;;		On exit  : 0/0
  3265 ;;		Unchanged: 0/0
  3266 ;; Data sizes:     COMMON   BANK0   BANK1   BANK2
  3267 ;;      Params:         0       0       0       0
  3268 ;;      Locals:         0       0       0       0
  3269 ;;      Temps:          1       0       0       0
  3270 ;;      Totals:         1       0       0       0
  3271 ;;Total ram usage:        1 bytes
  3272 ;; Hardware stack levels used:    1
  3273 ;; Hardware stack levels required when called:    1
  3274 ;; This function calls:
  3275 ;;		_timerInterrupt
  3276 ;; This function is called by:
  3277 ;;		Interrupt level 1
  3278 ;; This function uses a non-reentrant model
  3279 ;;
  3280                           
  3281  0004                     _ISRCode:	
  3282                           
  3283                           ;incstack = 0
  3284                           ; Regs used in _ISRCode: [wreg+fsr1l+fsr1h+status,2+status,0+pclath+cstack]
  3285  0004  3180               	pagesel	$
  3286  0005  0020               	movlb	0	; select bank0
  3287  0006  087F               	movf	127,w
  3288  0007  00F3               	movwf	??_ISRCode
  3289                           
  3290                           ;interrupt.c: 37: timerInterrupt( );
  3291  0008  3184  246B         	fcall	_timerInterrupt
  3292  000A  0873               	movf	??_ISRCode,w
  3293  000B  0020               	movlb	0	; select bank0
  3294  000C  00FF               	movwf	127
  3295  000D  0009               	retfie
  3296  000E                     __end_of_ISRCode:	
  3297                           
  3298                           	psect	text17
  3299  046B                     __ptext17:	
  3300 ;; *************** function _timerInterrupt *****************
  3301 ;; Defined at:
  3302 ;;		line 52 in file "source/timer.c"
  3303 ;; Parameters:    Size  Location     Type
  3304 ;;		None
  3305 ;; Auto vars:     Size  Location     Type
  3306 ;;  i               1    2[COMMON] unsigned char 
  3307 ;; Return value:  Size  Location     Type
  3308 ;;		None               void
  3309 ;; Registers used:
  3310 ;;		wreg, fsr1l, fsr1h, status,2, status,0
  3311 ;; Tracked objects:
  3312 ;;		On entry : 0/0
  3313 ;;		On exit  : 0/0
  3314 ;;		Unchanged: 0/0
  3315 ;; Data sizes:     COMMON   BANK0   BANK1   BANK2
  3316 ;;      Params:         0       0       0       0
  3317 ;;      Locals:         1       0       0       0
  3318 ;;      Temps:          2       0       0       0
  3319 ;;      Totals:         3       0       0       0
  3320 ;;Total ram usage:        3 bytes
  3321 ;; Hardware stack levels used:    1
  3322 ;; This function calls:
  3323 ;;		Nothing
  3324 ;; This function is called by:
  3325 ;;		_ISRCode
  3326 ;; This function uses a non-reentrant model
  3327 ;;
  3328                           
  3329                           
  3330                           ;psect for function _timerInterrupt
  3331  046B                     _timerInterrupt:	
  3332                           
  3333                           ;timer.c: 54: unsigned char i;
  3334                           ;timer.c: 56: if ( PIE1bits.TMR1IE && PIR1bits.TMR1IF )
  3335                           
  3336                           ;incstack = 0
  3337                           ; Regs used in _timerInterrupt: [wreg+fsr1l+fsr1h+status,2+status,0]
  3338  046B  0021               	movlb	1	; select bank1
  3339  046C  1C11               	btfss	17,0	;volatile
  3340  046D  0008               	return
  3341  046E  0020               	movlb	0	; select bank0
  3342  046F  1C11               	btfss	17,0	;volatile
  3343  0470  0008               	return
  3344                           
  3345                           ;timer.c: 57: {
  3346                           ;timer.c: 58: T1CONbits.TMR1ON = 0;
  3347  0471  1018               	bcf	24,0	;volatile
  3348                           
  3349                           ;timer.c: 59: if ( ( delayTimer != 0 ) )
  3350  0472  0839               	movf	_delayTimer,w
  3351  0473  043A               	iorwf	_delayTimer+1,w
  3352  0474  1903               	btfsc	3,2
  3353  0475  2C7A               	goto	i1l1365
  3354                           
  3355                           ;timer.c: 60: {
  3356                           ;timer.c: 61: delayTimer--;
  3357  0476  3001               	movlw	1
  3358  0477  02B9               	subwf	_delayTimer,f
  3359  0478  3000               	movlw	0
  3360  0479  3BBA               	subwfb	_delayTimer+1,f
  3361  047A                     i1l1365:	
  3362                           
  3363                           ;timer.c: 62: }
  3364                           ;timer.c: 64: for ( i = 0; i < numTimers; i++ )
  3365  047A  01F2               	clrf	timerInterrupt@i
  3366  047B                     i1l1375:	
  3367  047B  0877               	movf	_numTimers,w
  3368  047C  0272               	subwf	timerInterrupt@i,w
  3369  047D  1803               	btfsc	3,0
  3370  047E  2CA2               	goto	i1l1377
  3371                           
  3372                           ;timer.c: 65: {
  3373                           ;timer.c: 66: if ( ( timers[i] != 0 ) && ( timers[i] != 0xFFFF ) )
  3374  047F  3572               	lslf	timerInterrupt@i,w
  3375  0480  3EA0               	addlw	(low (_timers| 0))& (0+255)
  3376  0481  0086               	movwf	6
  3377  0482  0187               	clrf	7
  3378  0483  0016               	moviw fsr1++
  3379  0484  0401               	iorwf	1,w
  3380  0485  1903               	btfsc	3,2
  3381  0486  2C9D               	goto	i1l1373
  3382  0487  3572               	lslf	timerInterrupt@i,w
  3383  0488  3EA0               	addlw	(low (_timers| 0))& (0+255)
  3384  0489  0086               	movwf	6
  3385  048A  0187               	clrf	7
  3386  048B  0016               	moviw fsr1++
  3387  048C  3AFF               	xorlw	255
  3388  048D  00F0               	movwf	??_timerInterrupt
  3389  048E  0016               	moviw fsr1++
  3390  048F  3AFF               	xorlw	255
  3391  0490  04F0               	iorwf	??_timerInterrupt,f
  3392  0491  1903               	btfsc	3,2
  3393  0492  2C9D               	goto	i1l1373
  3394                           
  3395                           ;timer.c: 67: {
  3396                           ;timer.c: 68: timers[i]--;
  3397  0493  3572               	lslf	timerInterrupt@i,w
  3398  0494  3EA0               	addlw	(low (_timers| 0))& (0+255)
  3399  0495  0086               	movwf	6
  3400  0496  0187               	clrf	7
  3401  0497  3001               	movlw	1
  3402  0498  0281               	subwf	1,f
  3403  0499  3141               	addfsr 1,1
  3404  049A  3000               	movlw	0
  3405  049B  3B81               	subwfb	1,f
  3406  049C  317F               	addfsr 1,-1
  3407  049D                     i1l1373:	
  3408  049D  3001               	movlw	1
  3409  049E  00F0               	movwf	??_timerInterrupt
  3410  049F  0870               	movf	??_timerInterrupt,w
  3411  04A0  07F2               	addwf	timerInterrupt@i,f
  3412  04A1  2C7B               	goto	i1l1375
  3413  04A2                     i1l1377:	
  3414                           
  3415                           ;timer.c: 69: }
  3416                           ;timer.c: 70: }
  3417                           ;timer.c: 72: TMR1H = (BYTE) ( 32000 >> 8 );
  3418  04A2  307D               	movlw	125
  3419  04A3  0020               	movlb	0	; select bank0
  3420  04A4  0097               	movwf	23	;volatile
  3421                           
  3422                           ;timer.c: 73: TMR1L = (BYTE) ( 32000 & 0xff );
  3423  04A5  0196               	clrf	22	;volatile
  3424                           
  3425                           ;timer.c: 74: T1CONbits.TMR1ON = 1;
  3426  04A6  1418               	bsf	24,0	;volatile
  3427                           
  3428                           ;timer.c: 75: PIR1bits.TMR1IF = 0;
  3429  04A7  1011               	bcf	17,0	;volatile
  3430  04A8  0008               	return
  3431  04A9                     __end_of_timerInterrupt:	
  3432  007E                     btemp	set	126	;btemp
  3433  007E                     wtemp	set	126
  3434  007E                     wtemp0	set	126
  3435  0080                     wtemp1	set	128
  3436  0082                     wtemp2	set	130
  3437  0084                     wtemp3	set	132
  3438  0086                     wtemp4	set	134
  3439  0088                     wtemp5	set	136
  3440  007F                     wtemp6	set	127
  3441  007E                     ttemp	set	126
  3442  007E                     ttemp0	set	126
  3443  0081                     ttemp1	set	129
  3444  0084                     ttemp2	set	132
  3445  0087                     ttemp3	set	135
  3446  007F                     ttemp4	set	127
  3447  007E                     ltemp	set	126
  3448  007E                     ltemp0	set	126
  3449  0082                     ltemp1	set	130
  3450  0086                     ltemp2	set	134
  3451  0080                     ltemp3	set	128


Data Sizes:
    Strings     0
    Constant    512
    Data        0
    BSS         84
    Persistent  1
    Stack       0

Auto Spaces:
    Space          Size  Autos    Used
    COMMON           14      6      10
    BANK0            80     25      42
    BANK1            80      0      64
    BANK2            64      0       0

Pointer List with Targets:

    None.

Critical Paths under _main in COMMON

    _usageCounterService->___awdiv
    _usageCounterService->_timerDelay
    _usageCounterService->_timerSet
    ___awdiv->___awmod
    _usageCounterInit->_timerGet
    _usageCounterInit->_timerSet
    _timerGet->_timerLock

Critical Paths under _ISRCode in COMMON

    _ISRCode->_timerInterrupt

Critical Paths under _main in BANK0

    _main->_usageCounterService
    _usageCounterService->___awdiv
    ___awdiv->___awmod
    _initialise->_usageCounterInit
    _usageCounterInit->_timerGet
    _usageCounterInit->_timerSet

Critical Paths under _ISRCode in BANK0

    None.

Critical Paths under _main in BANK1

    None.

Critical Paths under _ISRCode in BANK1

    None.

Critical Paths under _main in BANK2

    None.

Critical Paths under _ISRCode in BANK2

    None.

Call Graph Tables:

 ---------------------------------------------------------------------------------
 (Depth) Function   	        Calls       Base Space   Used Autos Params    Refs
 ---------------------------------------------------------------------------------
 (0) _main                                                 0     0      0    2844
                         _initialise
                _usageCounterService
 ---------------------------------------------------------------------------------
 (1) _usageCounterService                                 11    11      0    2494
                                             14 BANK0     11    11      0
                            ___awdiv
                            ___awmod
                         _timerDelay
                          _timerRead
                           _timerSet
 ---------------------------------------------------------------------------------
 (2) _timerRead                                            6     3      3      99
                                              0 BANK0      6     3      3
 ---------------------------------------------------------------------------------
 (2) _timerDelay                                           2     0      2     446
                                              4 COMMON     2     0      2
 ---------------------------------------------------------------------------------
 (2) ___awmod                                              7     3      4     693
                                              4 COMMON     1     1      0
                                              0 BANK0      6     2      4
 ---------------------------------------------------------------------------------
 (2) ___awdiv                                              9     5      4     724
                                              5 COMMON     1     1      0
                                              6 BANK0      8     4      4
                            ___awmod (ARG)
 ---------------------------------------------------------------------------------
 (1) _initialise                                           0     0      0     350
                       _hardwareInit
                     _interruptsInit
                          _timerInit
                   _usageCounterInit
 ---------------------------------------------------------------------------------
 (2) _usageCounterInit                                     1     1      0     350
                                              1 BANK0      1     1      0
                         _initTimer6
                           _timerGet
                           _timerSet
 ---------------------------------------------------------------------------------
 (2) _timerSet                                             3     1      2     223
                                              4 COMMON     2     0      2
                                              0 BANK0      1     1      0
 ---------------------------------------------------------------------------------
 (3) _timerGet                                             2     2      0     127
                                              5 COMMON     1     1      0
                                              0 BANK0      1     1      0
                          _timerLock
 ---------------------------------------------------------------------------------
 (4) _timerLock                                            1     1      0      62
                                              4 COMMON     1     1      0
 ---------------------------------------------------------------------------------
 (3) _initTimer6                                           0     0      0       0
 ---------------------------------------------------------------------------------
 (2) _timerInit                                            0     0      0       0
 ---------------------------------------------------------------------------------
 (2) _interruptsInit                                       0     0      0       0
                      _initInterrupt
 ---------------------------------------------------------------------------------
 (3) _initInterrupt                                        0     0      0       0
 ---------------------------------------------------------------------------------
 (2) _hardwareInit                                         0     0      0       0
 ---------------------------------------------------------------------------------
 Estimated maximum stack depth 4
 ---------------------------------------------------------------------------------
 (Depth) Function   	        Calls       Base Space   Used Autos Params    Refs
 ---------------------------------------------------------------------------------
 (5) _ISRCode                                              1     1      0      90
                                              3 COMMON     1     1      0
                     _timerInterrupt
 ---------------------------------------------------------------------------------
 (6) _timerInterrupt                                       3     3      0      90
                                              0 COMMON     3     3      0
 ---------------------------------------------------------------------------------
 Estimated maximum stack depth 6
 ---------------------------------------------------------------------------------

 Call Graph Graphs:

 _main (ROOT)
   _initialise
     _hardwareInit
     _interruptsInit
       _initInterrupt
     _timerInit
     _usageCounterInit
       _initTimer6
       _timerGet
         _timerLock
       _timerSet
   _usageCounterService
     ___awdiv
       ___awmod (ARG)
     ___awmod
     _timerDelay
     _timerRead
     _timerSet

 _ISRCode (ROOT)
   _timerInterrupt

 Address spaces:
Name               Size   Autos  Total    Cost      Usage
BIGRAM              E0      0       0       0        0.0%
EEDATA             100      0       0       0        0.0%
NULL                 0      0       0       0        0.0%
CODE                 0      0       0       0        0.0%
BITCOMMON            E      0       0       1        0.0%
BITSFR0              0      0       0       1        0.0%
SFR0                 0      0       0       1        0.0%
COMMON               E      6       A       2       71.4%
BITSFR1              0      0       0       2        0.0%
SFR1                 0      0       0       2        0.0%
BITSFR2              0      0       0       3        0.0%
SFR2                 0      0       0       3        0.0%
STACK                0      0       0       3        0.0%
BITSFR3              0      0       0       4        0.0%
SFR3                 0      0       0       4        0.0%
ABS                  0      0      74       4        0.0%
BITBANK0            50      0       0       5        0.0%
BITSFR4              0      0       0       5        0.0%
SFR4                 0      0       0       5        0.0%
BANK0               50     19      2A       6       52.5%
BITSFR5              0      0       0       6        0.0%
SFR5                 0      0       0       6        0.0%
BITBANK1            50      0       0       7        0.0%
BITSFR6              0      0       0       7        0.0%
SFR6                 0      0       0       7        0.0%
BANK1               50      0      40       8       80.0%
BITSFR7              0      0       0       8        0.0%
SFR7                 0      0       0       8        0.0%
BITBANK2            40      0       0       9        0.0%
BITSFR8              0      0       0       9        0.0%
SFR8                 0      0       0       9        0.0%
BANK2               40      0       0      10        0.0%
BITSFR9              0      0       0      10        0.0%
SFR9                 0      0       0      10        0.0%
BITSFR10             0      0       0      11        0.0%
SFR10                0      0       0      11        0.0%
DATA                 0      0      74      11        0.0%
BITSFR11             0      0       0      12        0.0%
SFR11                0      0       0      12        0.0%
BITSFR12             0      0       0      13        0.0%
SFR12                0      0       0      13        0.0%
BITSFR13             0      0       0      14        0.0%
SFR13                0      0       0      14        0.0%
BITSFR14             0      0       0      15        0.0%
SFR14                0      0       0      15        0.0%
BITSFR15             0      0       0      16        0.0%
SFR15                0      0       0      16        0.0%
BITSFR16             0      0       0      17        0.0%
SFR16                0      0       0      17        0.0%
BITSFR17             0      0       0      18        0.0%
SFR17                0      0       0      18        0.0%
BITSFR18             0      0       0      19        0.0%
SFR18                0      0       0      19        0.0%
BITSFR19             0      0       0      20        0.0%
SFR19                0      0       0      20        0.0%
BITSFR20             0      0       0      21        0.0%
SFR20                0      0       0      21        0.0%
BITSFR21             0      0       0      22        0.0%
SFR21                0      0       0      22        0.0%
BITSFR22             0      0       0      23        0.0%
SFR22                0      0       0      23        0.0%
BITSFR23             0      0       0      24        0.0%
SFR23                0      0       0      24        0.0%
BITSFR24             0      0       0      25        0.0%
SFR24                0      0       0      25        0.0%
BITSFR25             0      0       0      26        0.0%
SFR25                0      0       0      26        0.0%
BITSFR26             0      0       0      27        0.0%
SFR26                0      0       0      27        0.0%
BITSFR27             0      0       0      28        0.0%
SFR27                0      0       0      28        0.0%
BITSFR28             0      0       0      29        0.0%
SFR28                0      0       0      29        0.0%
BITSFR29             0      0       0      30        0.0%
SFR29                0      0       0      30        0.0%
BITSFR30             0      0       0      31        0.0%
SFR30                0      0       0      31        0.0%
BITSFR31             0      0       0      32        0.0%
SFR31                0      0       0      32        0.0%


Microchip Technology PIC Macro Assembler V1.34 build -361300703 
Symbol Table                                                                                   Tue Oct 20 11:05:45 2015

            _usageCounterInit 04F3                   __CFG_CP$OFF 0000             _usageCounterTimer 0049  
                          _RD 0CA8                            _WR 0CA9                  ___awdiv@sign 002B  
                         l102 056A        __end_of_interruptsInit 0577                           _GIE 005F  
                __CFG_CPD$OFF 0000                           u635 03F4                           u655 03FE  
                         u665 0408                           u675 0410                  ___awmod@sign 0025  
                __CFG_BORV$LO 0000                           wreg 0009                  __CFG_LVP$OFF 0000  
                        l1251 0562                          l1261 03DE                          l1267 03E9  
                        l1293 0420                          l1285 040F                          l1277 03F1  
                        l1279 03FD                          l1289 0418                          l1713 0358  
                        l1723 037F                          l1715 037C                          l1733 03A6  
                        l1725 03A3                          l1671 043D                          l1663 0437  
                        l1647 04EE                          l1735 03CA                          l1673 0449  
                        l1681 045E                          l1659 0430                          l1685 0466  
                        l1677 0455                ??_hardwareInit 0074           _usageCounterService 0300  
                        u1315 0362                          u1245 0440                          u1325 0389  
                        u1335 03B0                          u1265 044F                          u1275 0456  
             __end_of_ISRCode 000E                          _WREN 0CAA                  __CFG_WRT$OFF 0000  
                        _main 0567                          fsr0h 0005                          fsr1h 0007  
                        fsr0l 0004                          indf0 0000                          indf1 0001  
                        fsr1l 0006                          btemp 007E                 __CFG_BOREN$ON 0000  
                        ltemp 007E                          start 000E                          ttemp 007E  
                        wtemp 007E                 __CFG_IESO$OFF 0000              ??_timerInterrupt 0070  
        ?_usageCounterService 0070                 __CFG_PLLEN$ON 0000                         ?_main 0070  
             __end_of___awdiv 0425                         _EEADR 0191                 __CFG_WDTE$OFF 0000  
             __end_of___awmod 046B                         _CARRY 0018               ___awdiv@divisor 0026  
             ?_interruptsInit 0070               ___awdiv@counter 002A                         _TMR1H 0017  
                       _TMR1L 0016                __CFG_FCMEN$OFF 0000               __end_of_correct 0300  
                       ltemp0 007E                         ltemp1 0082                         ltemp2 0086  
                       ltemp3 0080                         ttemp0 007E                         ttemp1 0081  
                       ttemp2 0084                         ttemp3 0087                         ttemp4 007F  
                       status 0003                         wtemp0 007E                         wtemp1 0080  
                       wtemp2 0082                         wtemp3 0084                         wtemp4 0086  
                       wtemp5 0088                         wtemp6 007F                __CFG_MCLRE$OFF 0000  
             __initialization 0010        __size_of_initInterrupt 0003                  __end_of_main 056E  
       ??_usageCounterService 002E                        ??_main 0076                _secondsCounter 003B  
                   ??_ISRCode 0073                _secondsSinceOn 003D                        _EEDATA 0193  
                      _EECON1 0195                        _EECON2 0196              ___awdiv@dividend 0028  
                      i1l1373 049D                        i1l1365 047A                        i1l1375 047B  
                      i1l1377 04A2                        _Config 0042                __CFG_PWRTE$OFF 0000  
                   ??___awdiv 0075                     ??___awmod 0074          __end_of_hardwareInit 04DC  
            ___awdiv@quotient 002C               ___awmod@divisor 0020                        _timers 00A0  
             ___awmod@counter 0024              __end_of_timerGet 0543              __end_of_timerSet 0534  
               _initInterrupt 0577      __end_of_usageCounterInit 0505       __end_of__initialization 0023  
              __pcstackCOMMON 0070         _ticksPerSecondCounter 003F                ?_initInterrupt 0070  
                  __pbssBANK0 0039                    __pbssBANK1 00A0                    _delayTimer 0039  
                  __pmaintext 0567              ??_interruptsInit 0074                    __pintentry 0004  
          __size_of_timerInit 0010            __size_of_timerRead 0017            __size_of_timerLock 000E  
                     _ISRCode 0004                       _PR6bits 041D         __size_of_hardwareInit 0033  
                   ?_timerGet 0070                     ?_timerSet 0074                    _initTimer6 0505  
                     ___awdiv 03D3                       ___awmod 0425               __CFG_STVREN$OFF 0000  
                  _initialise 0551                       __ptext1 0300                       __ptext2 04DC  
                     __ptext3 055D                       __ptext4 0425                       __ptext5 03D3  
                     __ptext6 0551                       __ptext7 04F3                       __ptext8 0525  
                     __ptext9 0534                       _correct 0100                     _T1CONbits 0018  
             ??_initInterrupt 0074              ___awmod@dividend 0022                     _T6CONbits 041E  
                     clrloop0 056F                    _minuteFlag 0076          end_of_initialization 0023  
                _hardwareInit 04A9   __end_of_usageCounterService 03D3             __end_of_timerInit 0525  
           __end_of_timerRead 04F3             __end_of_timerLock 0551                    ??_timerGet 0075  
                  ??_timerSet 0076                  __pstringtext 0100                    _timerDelay 055D  
usageCounterService@thousands 002F       __size_of_timerInterrupt 003E              __CFG_FOSC$INTOSC 0000  
                   _TRISAbits 008C                     _TRISBbits 008D                     _TRISCbits 008E  
                  _unitIsDead 0078             ?_usageCounterInit 0070            ??_usageCounterInit 0021  
                 ?_initTimer6 0070                   ?_initialise 0070           start_initialization 0010  
                 ?_timerDelay 0074                   __pbssCOMMON 0076                     ___latbits 0001  
               __pcstackBANK0 0020                      ?_ISRCode 0070           __size_of_initTimer6 0010  
         __size_of_initialise 000C                     __pnvBANK0 0049                      ?___awdiv 0026  
                    ?___awmod 0020             __size_of_timerGet 000F             __size_of_timerSet 000F  
            timerSet@duration 0074                _timerInterrupt 046B           __size_of_timerDelay 000A  
                    _LATBbits 010D                      _LATCbits 010E                     clear_ram0 056E  
                    _PIE1bits 0091                      _PIE3bits 0093                      _PIR1bits 0011  
                    _PIR3bits 0013                     _numTimers 0077                     _timerInit 0515  
                   _timerRead 04DC                     _timerLock 0543          usageCounterService@i 0037  
                    _TMR6bits 041C        __end_of_timerInterrupt 04A9                      _UCToggle 0041  
       __end_of_initInterrupt 057A       __size_of_interruptsInit 0003              __size_of_ISRCode 000A  
             timerRead@result 0023     __size_of_usageCounterInit 0012                  ??_initTimer6 0074  
                  ?_timerInit 0070                    ?_timerRead 0020                    ?_timerLock 0070  
__size_of_usageCounterService 00D3              __size_of___awdiv 0052              __size_of___awmod 0046  
                ??_initialise 0076               ?_timerInterrupt 0070                    _ANSELAbits 018C  
                  _ANSELBbits 018D                    _ANSELCbits 018E                timerGet@result 0020  
                    __ptext10 0543                      __ptext11 0505                      __ptext12 0515  
                    __ptext13 0574                    _T1GCONbits 0019                      __ptext14 0577  
                    __ptext15 04A9                      __ptext17 046B               timerInterrupt@i 0072  
          __end_of_initTimer6 0515                 __size_of_main 0007            __end_of_initialise 055D  
                    _timerGet 0534                      _timerSet 0525                  ??_timerDelay 0076  
              timerRead@index 0025                timerLock@index 0074                    _INTCONbits 000B  
                    intlevel1 0000            __end_of_timerDelay 0567             __CFG_CLKOUTEN$OFF 0000  
    usageCounterService@hours 0035                    _OSCCONbits 0099   usageCounterService@hundreds 0031  
                 ??_timerInit 0074                   ??_timerRead 0074                   ??_timerLock 0074  
          timerDelay@duration 0074                 timerSet@index 0020       usageCounterService@tens 0033  
              _interruptsInit 0574                 ?_hardwareInit 0070                _usageCounterOn 0079  
